
bin/aes.elf:     file format elf32-littleriscv


Disassembly of section .tohost:

90000000 <tohost>:
	...

Disassembly of section .fromhost:

90000040 <fromhost>:
	...

Disassembly of section .text:

80000000 <_start>:
80000000:	01c000ef          	jal	8000001c <main>
80000004:	0040006f          	j	80000008 <_exit>

80000008 <_exit>:
80000008:	10000297          	auipc	t0,0x10000
8000000c:	ff828293          	addi	t0,t0,-8 # 90000000 <tohost>
80000010:	00100313          	li	t1,1
80000014:	0062a023          	sw	t1,0(t0)
80000018:	0000006f          	j	80000018 <_exit+0x10>

8000001c <main>:
8000001c:	800005b7          	lui	a1,0x80000
80000020:	80000f37          	lui	t5,0x80000
80000024:	4cc58593          	addi	a1,a1,1228 # 800004cc <key.2>
80000028:	4ecf0f13          	addi	t5,t5,1260 # 800004ec <roundKeys.1>
8000002c:	fd010113          	addi	sp,sp,-48
80000030:	00058793          	mv	a5,a1
80000034:	01058893          	addi	a7,a1,16
80000038:	000f0713          	mv	a4,t5
8000003c:	0007a683          	lw	a3,0(a5)
80000040:	00478793          	addi	a5,a5,4
80000044:	00470713          	addi	a4,a4,4
80000048:	fed72e23          	sw	a3,-4(a4)
8000004c:	fef898e3          	bne	a7,a5,8000003c <main+0x20>
80000050:	80000337          	lui	t1,0x80000
80000054:	3c030313          	addi	t1,t1,960 # 800003c0 <sbox>
80000058:	010f0813          	addi	a6,t5,16
8000005c:	00000e93          	li	t4,0
80000060:	01000513          	li	a0,16
80000064:	0b000f93          	li	t6,176
80000068:	00c10713          	addi	a4,sp,12
8000006c:	00070793          	mv	a5,a4
80000070:	00080693          	mv	a3,a6
80000074:	ffc6c603          	lbu	a2,-4(a3)
80000078:	00178793          	addi	a5,a5,1
8000007c:	00168693          	addi	a3,a3,1
80000080:	fec78fa3          	sb	a2,-1(a5)
80000084:	01010613          	addi	a2,sp,16
80000088:	fef616e3          	bne	a2,a5,80000074 <main+0x58>
8000008c:	00f57793          	andi	a5,a0,15
80000090:	04079a63          	bnez	a5,800000e4 <main+0xc8>
80000094:	00d14783          	lbu	a5,13(sp)
80000098:	00c14e03          	lbu	t3,12(sp)
8000009c:	00f14603          	lbu	a2,15(sp)
800000a0:	00e14683          	lbu	a3,14(sp)
800000a4:	01d302b3          	add	t0,t1,t4
800000a8:	00f307b3          	add	a5,t1,a5
800000ac:	0007c783          	lbu	a5,0(a5)
800000b0:	1002c283          	lbu	t0,256(t0)
800000b4:	01c30e33          	add	t3,t1,t3
800000b8:	00c30633          	add	a2,t1,a2
800000bc:	00d306b3          	add	a3,t1,a3
800000c0:	000e4e03          	lbu	t3,0(t3)
800000c4:	00064603          	lbu	a2,0(a2)
800000c8:	0006c683          	lbu	a3,0(a3)
800000cc:	0057c7b3          	xor	a5,a5,t0
800000d0:	001e8e93          	addi	t4,t4,1
800000d4:	00f10623          	sb	a5,12(sp)
800000d8:	01c107a3          	sb	t3,15(sp)
800000dc:	00c10723          	sb	a2,14(sp)
800000e0:	00d106a3          	sb	a3,13(sp)
800000e4:	00080793          	mv	a5,a6
800000e8:	ff07c683          	lbu	a3,-16(a5)
800000ec:	00074603          	lbu	a2,0(a4)
800000f0:	00170713          	addi	a4,a4,1
800000f4:	00178793          	addi	a5,a5,1
800000f8:	00c6c6b3          	xor	a3,a3,a2
800000fc:	fed78fa3          	sb	a3,-1(a5)
80000100:	01010693          	addi	a3,sp,16
80000104:	fee692e3          	bne	a3,a4,800000e8 <main+0xcc>
80000108:	00450513          	addi	a0,a0,4
8000010c:	00480813          	addi	a6,a6,4
80000110:	f5f51ce3          	bne	a0,t6,80000068 <main+0x4c>
80000114:	00012623          	sw	zero,12(sp)
80000118:	00c12783          	lw	a5,12(sp)
8000011c:	00900f93          	li	t6,9
80000120:	28ffea63          	bltu	t6,a5,800003b4 <main+0x398>
80000124:	80000e37          	lui	t3,0x80000
80000128:	80000eb7          	lui	t4,0x80000
8000012c:	02812623          	sw	s0,44(sp)
80000130:	02912423          	sw	s1,40(sp)
80000134:	03212223          	sw	s2,36(sp)
80000138:	03312023          	sw	s3,32(sp)
8000013c:	01412e23          	sw	s4,28(sp)
80000140:	01512c23          	sw	s5,24(sp)
80000144:	01612a23          	sw	s6,20(sp)
80000148:	01712823          	sw	s7,16(sp)
8000014c:	3c0e0e13          	addi	t3,t3,960 # 800003c0 <sbox>
80000150:	59ce8e93          	addi	t4,t4,1436 # 8000059c <roundKeys.1+0xb0>
80000154:	800003b7          	lui	t2,0x80000
80000158:	800002b7          	lui	t0,0x80000
8000015c:	02058813          	addi	a6,a1,32
80000160:	00088313          	mv	t1,a7
80000164:	000f0693          	mv	a3,t5
80000168:	00088793          	mv	a5,a7
8000016c:	0007a603          	lw	a2,0(a5)
80000170:	0006a703          	lw	a4,0(a3)
80000174:	00478793          	addi	a5,a5,4
80000178:	00468693          	addi	a3,a3,4
8000017c:	00c74733          	xor	a4,a4,a2
80000180:	fee7ae23          	sw	a4,-4(a5)
80000184:	fef814e3          	bne	a6,a5,8000016c <main+0x150>
80000188:	50c38513          	addi	a0,t2,1292 # 8000050c <roundKeys.1+0x20>
8000018c:	00088793          	mv	a5,a7
80000190:	0007c703          	lbu	a4,0(a5)
80000194:	00178793          	addi	a5,a5,1
80000198:	00ee0733          	add	a4,t3,a4
8000019c:	00074703          	lbu	a4,0(a4)
800001a0:	fee78fa3          	sb	a4,-1(a5)
800001a4:	fef816e3          	bne	a6,a5,80000190 <main+0x174>
800001a8:	01b5c703          	lbu	a4,27(a1)
800001ac:	0115cb83          	lbu	s7,17(a1)
800001b0:	01d5cb03          	lbu	s6,29(a1)
800001b4:	0195ca83          	lbu	s5,25(a1)
800001b8:	0155ca03          	lbu	s4,21(a1)
800001bc:	0125c983          	lbu	s3,18(a1)
800001c0:	01a5c903          	lbu	s2,26(a1)
800001c4:	0165c483          	lbu	s1,22(a1)
800001c8:	01e5c403          	lbu	s0,30(a1)
800001cc:	0135c603          	lbu	a2,19(a1)
800001d0:	0175c683          	lbu	a3,23(a1)
800001d4:	01f5c783          	lbu	a5,31(a1)
800001d8:	01758ea3          	sb	s7,29(a1)
800001dc:	00e58fa3          	sb	a4,31(a1)
800001e0:	01658ca3          	sb	s6,25(a1)
800001e4:	01558aa3          	sb	s5,21(a1)
800001e8:	014588a3          	sb	s4,17(a1)
800001ec:	01358d23          	sb	s3,26(a1)
800001f0:	01258923          	sb	s2,18(a1)
800001f4:	00958f23          	sb	s1,30(a1)
800001f8:	00858b23          	sb	s0,22(a1)
800001fc:	00c58ba3          	sb	a2,23(a1)
80000200:	00d58da3          	sb	a3,27(a1)
80000204:	00f589a3          	sb	a5,19(a1)
80000208:	00088713          	mv	a4,a7
8000020c:	00074603          	lbu	a2,0(a4)
80000210:	00174683          	lbu	a3,1(a4)
80000214:	00274403          	lbu	s0,2(a4)
80000218:	00374483          	lbu	s1,3(a4)
8000021c:	00c6cbb3          	xor	s7,a3,a2
80000220:	00d449b3          	xor	s3,s0,a3
80000224:	00c4c933          	xor	s2,s1,a2
80000228:	0084c7b3          	xor	a5,s1,s0
8000022c:	018b9a93          	slli	s5,s7,0x18
80000230:	01879a13          	slli	s4,a5,0x18
80000234:	418ada93          	srai	s5,s5,0x18
80000238:	0177c7b3          	xor	a5,a5,s7
8000023c:	01899993          	slli	s3,s3,0x18
80000240:	01891913          	slli	s2,s2,0x18
80000244:	00c7c633          	xor	a2,a5,a2
80000248:	00d7c6b3          	xor	a3,a5,a3
8000024c:	0097c4b3          	xor	s1,a5,s1
80000250:	4189d993          	srai	s3,s3,0x18
80000254:	41895913          	srai	s2,s2,0x18
80000258:	418a5a13          	srai	s4,s4,0x18
8000025c:	001a9b13          	slli	s6,s5,0x1
80000260:	0087c7b3          	xor	a5,a5,s0
80000264:	000ad463          	bgez	s5,8000026c <main+0x250>
80000268:	01bb4b13          	xori	s6,s6,27
8000026c:	01664633          	xor	a2,a2,s6
80000270:	00c70023          	sb	a2,0(a4)
80000274:	00199613          	slli	a2,s3,0x1
80000278:	0009d463          	bgez	s3,80000280 <main+0x264>
8000027c:	01b64613          	xori	a2,a2,27
80000280:	00c6c6b3          	xor	a3,a3,a2
80000284:	00d700a3          	sb	a3,1(a4)
80000288:	001a1693          	slli	a3,s4,0x1
8000028c:	000a5463          	bgez	s4,80000294 <main+0x278>
80000290:	01b6c693          	xori	a3,a3,27
80000294:	00d7c7b3          	xor	a5,a5,a3
80000298:	00f70123          	sb	a5,2(a4)
8000029c:	00191793          	slli	a5,s2,0x1
800002a0:	00095463          	bgez	s2,800002a8 <main+0x28c>
800002a4:	01b7c793          	xori	a5,a5,27
800002a8:	00f4c7b3          	xor	a5,s1,a5
800002ac:	00f701a3          	sb	a5,3(a4)
800002b0:	00470713          	addi	a4,a4,4
800002b4:	f4e81ce3          	bne	a6,a4,8000020c <main+0x1f0>
800002b8:	ff050793          	addi	a5,a0,-16
800002bc:	00088713          	mv	a4,a7
800002c0:	00072683          	lw	a3,0(a4)
800002c4:	0007a603          	lw	a2,0(a5)
800002c8:	00478793          	addi	a5,a5,4
800002cc:	00470713          	addi	a4,a4,4
800002d0:	00c6c6b3          	xor	a3,a3,a2
800002d4:	fed72e23          	sw	a3,-4(a4)
800002d8:	fea794e3          	bne	a5,a0,800002c0 <main+0x2a4>
800002dc:	01078513          	addi	a0,a5,16
800002e0:	eaae96e3          	bne	t4,a0,8000018c <main+0x170>
800002e4:	00088793          	mv	a5,a7
800002e8:	0007c703          	lbu	a4,0(a5)
800002ec:	00178793          	addi	a5,a5,1
800002f0:	00ee0733          	add	a4,t3,a4
800002f4:	00074703          	lbu	a4,0(a4)
800002f8:	fee78fa3          	sb	a4,-1(a5)
800002fc:	ff0796e3          	bne	a5,a6,800002e8 <main+0x2cc>
80000300:	01b5c703          	lbu	a4,27(a1)
80000304:	0115cb03          	lbu	s6,17(a1)
80000308:	01d5ca83          	lbu	s5,29(a1)
8000030c:	0195ca03          	lbu	s4,25(a1)
80000310:	0155c983          	lbu	s3,21(a1)
80000314:	0125c903          	lbu	s2,18(a1)
80000318:	01a5c483          	lbu	s1,26(a1)
8000031c:	0165c403          	lbu	s0,22(a1)
80000320:	01e5c503          	lbu	a0,30(a1)
80000324:	0135c603          	lbu	a2,19(a1)
80000328:	0175c683          	lbu	a3,23(a1)
8000032c:	01f5c783          	lbu	a5,31(a1)
80000330:	01658ea3          	sb	s6,29(a1)
80000334:	00e58fa3          	sb	a4,31(a1)
80000338:	01558ca3          	sb	s5,25(a1)
8000033c:	01458aa3          	sb	s4,21(a1)
80000340:	013588a3          	sb	s3,17(a1)
80000344:	01258d23          	sb	s2,26(a1)
80000348:	00958923          	sb	s1,18(a1)
8000034c:	00858f23          	sb	s0,30(a1)
80000350:	00a58b23          	sb	a0,22(a1)
80000354:	00c58ba3          	sb	a2,23(a1)
80000358:	00d58da3          	sb	a3,27(a1)
8000035c:	00f589a3          	sb	a5,19(a1)
80000360:	58c28713          	addi	a4,t0,1420 # 8000058c <roundKeys.1+0xa0>
80000364:	00032783          	lw	a5,0(t1)
80000368:	00072683          	lw	a3,0(a4)
8000036c:	00430313          	addi	t1,t1,4
80000370:	00470713          	addi	a4,a4,4
80000374:	00d7c7b3          	xor	a5,a5,a3
80000378:	fef32e23          	sw	a5,-4(t1)
8000037c:	fe6814e3          	bne	a6,t1,80000364 <main+0x348>
80000380:	00c12783          	lw	a5,12(sp)
80000384:	00178793          	addi	a5,a5,1
80000388:	00f12623          	sw	a5,12(sp)
8000038c:	00c12783          	lw	a5,12(sp)
80000390:	dcfff8e3          	bgeu	t6,a5,80000160 <main+0x144>
80000394:	02c12403          	lw	s0,44(sp)
80000398:	02812483          	lw	s1,40(sp)
8000039c:	02412903          	lw	s2,36(sp)
800003a0:	02012983          	lw	s3,32(sp)
800003a4:	01c12a03          	lw	s4,28(sp)
800003a8:	01812a83          	lw	s5,24(sp)
800003ac:	01412b03          	lw	s6,20(sp)
800003b0:	01012b83          	lw	s7,16(sp)
800003b4:	00000513          	li	a0,0
800003b8:	03010113          	addi	sp,sp,48
800003bc:	00008067          	ret

Disassembly of section .rodata:

800003c0 <sbox>:
800003c0:	7b777c63          	bgeu	a4,s7,80000b78 <roundKeys.1+0x68c>
800003c4:	6bf2                	.insn	2, 0x6bf2
800003c6:	0130c56f          	jal	a0,8000cbd8 <roundKeys.1+0xc6ec>
800003ca:	d7fe2b67          	.insn	4, 0xd7fe2b67
800003ce:	82ca76ab          	.insn	4, 0x82ca76ab
800003d2:	7dc9                	.insn	2, 0x7dc9
800003d4:	59fa                	.insn	2, 0x59fa
800003d6:	d4adf047          	.insn	4, 0xd4adf047
800003da:	afa2                	.insn	2, 0xafa2
800003dc:	a49c                	.insn	2, 0xa49c
800003de:	c072                	.insn	2, 0xc072
800003e0:	2693fdb7          	lui	s11,0x2693f
800003e4:	3f36                	.insn	2, 0x3f36
800003e6:	a534ccf7          	.insn	4, 0xa534ccf7
800003ea:	f1e5                	.insn	2, 0xf1e5
800003ec:	d871                	.insn	2, 0xd871
800003ee:	1531                	.insn	2, 0x1531
800003f0:	c704                	.insn	2, 0xc704
800003f2:	9618c323          	.insn	4, 0x9618c323
800003f6:	9a05                	.insn	2, 0x9a05
800003f8:	e2801207          	.insn	4, 0xe2801207
800003fc:	75b227eb          	.insn	4, 0x75b227eb
80000400:	8309                	.insn	2, 0x8309
80000402:	1a2c                	.insn	2, 0x1a2c
80000404:	a05a6e1b          	.insn	4, 0xa05a6e1b
80000408:	3b52                	.insn	2, 0x3b52
8000040a:	b3d6                	.insn	2, 0xb3d6
8000040c:	e329                	.insn	2, 0xe329
8000040e:	d153842f          	.insn	4, 0xd153842f
80000412:	ed00                	.insn	2, 0xed00
80000414:	fc20                	.insn	2, 0xfc20
80000416:	5bb1                	.insn	2, 0x5bb1
80000418:	cb6a                	.insn	2, 0xcb6a
8000041a:	39be                	.insn	2, 0x39be
8000041c:	4c4a                	.insn	2, 0x4c4a
8000041e:	cf58                	.insn	2, 0xcf58
80000420:	efd0                	.insn	2, 0xefd0
80000422:	fbaa                	.insn	2, 0xfbaa
80000424:	85334d43          	.insn	4, 0x85334d43
80000428:	f945                	.insn	2, 0xf945
8000042a:	7f02                	.insn	2, 0x7f02
8000042c:	3c50                	.insn	2, 0x3c50
8000042e:	a89f a351 8f40      	.insn	6, 0x8f40a351a89f
80000434:	9d92                	.insn	2, 0x9d92
80000436:	f538                	.insn	2, 0xf538
80000438:	b6bc                	.insn	2, 0xb6bc
8000043a:	21da                	.insn	2, 0x21da
8000043c:	ff10                	.insn	2, 0xff10
8000043e:	0ccdd2f3          	.insn	4, 0x0ccdd2f3
80000442:	975fec13          	ori	s8,t6,-1675
80000446:	1744                	.insn	2, 0x1744
80000448:	a7c4                	.insn	2, 0xa7c4
8000044a:	3d7e                	.insn	2, 0x3d7e
8000044c:	5d64                	.insn	2, 0x5d64
8000044e:	7319                	.insn	2, 0x7319
80000450:	8160                	.insn	2, 0x8160
80000452:	2a22dc4f          	.insn	4, 0x2a22dc4f
80000456:	8890                	.insn	2, 0x8890
80000458:	ee46                	.insn	2, 0xee46
8000045a:	14b8                	.insn	2, 0x14b8
8000045c:	5ede                	.insn	2, 0x5ede
8000045e:	32e0db0b          	.insn	4, 0x32e0db0b
80000462:	0a3a                	.insn	2, 0x0a3a
80000464:	0649                	.insn	2, 0x0649
80000466:	5c24                	.insn	2, 0x5c24
80000468:	d3c2                	.insn	2, 0xd3c2
8000046a:	62ac                	.insn	2, 0x62ac
8000046c:	9591                	.insn	2, 0x9591
8000046e:	79e4                	.insn	2, 0x79e4
80000470:	6d37c8e7          	.insn	4, 0x6d37c8e7
80000474:	d58d                	.insn	2, 0xd58d
80000476:	a94e                	.insn	2, 0xa94e
80000478:	566c                	.insn	2, 0x566c
8000047a:	eaf4                	.insn	2, 0xeaf4
8000047c:	7a65                	.insn	2, 0x7a65
8000047e:	08ae                	.insn	2, 0x08ae
80000480:	78ba                	.insn	2, 0x78ba
80000482:	2e25                	.insn	2, 0x2e25
80000484:	a61c                	.insn	2, 0xa61c
80000486:	c6b4                	.insn	2, 0xc6b4
80000488:	dde8                	.insn	2, 0xdde8
8000048a:	1f74                	.insn	2, 0x1f74
8000048c:	8a8bbd4b          	.insn	4, 0x8a8bbd4b
80000490:	3e70                	.insn	2, 0x3e70
80000492:	66b5                	.insn	2, 0x66b5
80000494:	0348                	.insn	2, 0x0348
80000496:	0ef6                	.insn	2, 0x0ef6
80000498:	3561                	.insn	2, 0x3561
8000049a:	c186b957          	.insn	4, 0xc186b957
8000049e:	9e1d                	.insn	2, 0x9e1d
800004a0:	f8e1                	.insn	2, 0xf8e1
800004a2:	1198                	.insn	2, 0x1198
800004a4:	d969                	.insn	2, 0xd969
800004a6:	948e                	.insn	2, 0x948e
800004a8:	e9871e9b          	.insn	4, 0xe9871e9b
800004ac:	55ce                	.insn	2, 0x55ce
800004ae:	df28                	.insn	2, 0xdf28
800004b0:	a18c                	.insn	2, 0xa18c
800004b2:	0d89                	.insn	2, 0x0d89
800004b4:	6842e6bf 0f2d9941 	.insn	8, 0x0f2d99416842e6bf
800004bc:	54b0                	.insn	2, 0x54b0
800004be:	          	.insn	4, 0x020116bb

800004c0 <rcon>:
800004c0:	0201                	.insn	2, 0x0201
800004c2:	0804                	.insn	2, 0x0804
800004c4:	2010                	.insn	2, 0x2010
800004c6:	8040                	.insn	2, 0x8040
800004c8:	361b                	.short	0x361b

Disassembly of section .data:

800004cc <key.2>:
800004cc:	0100                	.insn	2, 0x0100
800004ce:	0302                	.insn	2, 0x0302
800004d0:	0504                	.insn	2, 0x0504
800004d2:	0706                	.insn	2, 0x0706
800004d4:	0908                	.insn	2, 0x0908
800004d6:	0b0a                	.insn	2, 0x0b0a
800004d8:	0d0c                	.insn	2, 0x0d0c
800004da:	0f0e                	.insn	2, 0x0f0e

800004dc <block.0>:
800004dc:	1100                	.insn	2, 0x1100
800004de:	3322                	.insn	2, 0x3322
800004e0:	5544                	.insn	2, 0x5544
800004e2:	7766                	.insn	2, 0x7766
800004e4:	9988                	.insn	2, 0x9988
800004e6:	bbaa                	.insn	2, 0xbbaa
800004e8:	ddcc                	.insn	2, 0xddcc
800004ea:	ffee                	.insn	2, 0xffee

Disassembly of section .comment:

00000000 <.comment>:
   0:	3a434347          	.insn	4, 0x3a434347
   4:	2820                	.insn	2, 0x2820
   6:	33623167          	.insn	4, 0x33623167
   a:	3630                	.insn	2, 0x3630
   c:	3330                	.insn	2, 0x3330
   e:	6139                	.insn	2, 0x6139
  10:	2029                	.insn	2, 0x2029
  12:	3531                	.insn	2, 0x3531
  14:	312e                	.insn	2, 0x312e
  16:	302e                	.insn	2, 0x302e
	...

Disassembly of section .riscv.attributes:

00000000 <.riscv.attributes>:
   0:	1b41                	.insn	2, 0x1b41
   2:	0000                	.insn	2, 0x0000
   4:	7200                	.insn	2, 0x7200
   6:	7369                	.insn	2, 0x7369
   8:	01007663          	bgeu	zero,a6,14 <_start-0x7fffffec>
   c:	0011                	.insn	2, 0x0011
   e:	0000                	.insn	2, 0x0000
  10:	1004                	.insn	2, 0x1004
  12:	7205                	.insn	2, 0x7205
  14:	3376                	.insn	2, 0x3376
  16:	6932                	.insn	2, 0x6932
  18:	7032                	.insn	2, 0x7032
  1a:	0031                	.insn	2, 0x0031
