
bin/sha256.elf:     file format elf32-littleriscv


Disassembly of section .tohost:

90000000 <tohost>:
	...

Disassembly of section .fromhost:

90000040 <fromhost>:
	...

Disassembly of section .text:

80000000 <_start>:
80000000:	620000ef          	jal	80000620 <main>
80000004:	0040006f          	j	80000008 <_exit>

80000008 <_exit>:
80000008:	10000297          	auipc	t0,0x10000
8000000c:	ff828293          	addi	t0,t0,-8 # 90000000 <tohost>
80000010:	00100313          	li	t1,1
80000014:	0062a023          	sw	t1,0(t0)
80000018:	0000006f          	j	80000018 <_exit+0x10>

8000001c <_hash>:
8000001c:	fd010113          	addi	sp,sp,-48
80000020:	03312023          	sw	s3,32(sp)
80000024:	01412e23          	sw	s4,28(sp)
80000028:	05c52983          	lw	s3,92(a0)
8000002c:	05852a03          	lw	s4,88(a0)
80000030:	01512c23          	sw	s5,24(sp)
80000034:	01612a23          	sw	s6,20(sp)
80000038:	05452a83          	lw	s5,84(a0)
8000003c:	05052b03          	lw	s6,80(a0)
80000040:	01712823          	sw	s7,16(sp)
80000044:	01812623          	sw	s8,12(sp)
80000048:	04c52b83          	lw	s7,76(a0)
8000004c:	04852c03          	lw	s8,72(a0)
80000050:	01912423          	sw	s9,8(sp)
80000054:	01a12223          	sw	s10,4(sp)
80000058:	04452c83          	lw	s9,68(a0)
8000005c:	04052d03          	lw	s10,64(a0)
80000060:	02812623          	sw	s0,44(sp)
80000064:	02912423          	sw	s1,40(sp)
80000068:	00050413          	mv	s0,a0
8000006c:	03212223          	sw	s2,36(sp)
80000070:	80001f37          	lui	t5,0x80001
80000074:	01b12023          	sw	s11,0(sp)
80000078:	00000e13          	li	t3,0
8000007c:	00f00913          	li	s2,15
80000080:	000d0613          	mv	a2,s10
80000084:	000c8e93          	mv	t4,s9
80000088:	000c0313          	mv	t1,s8
8000008c:	000b8513          	mv	a0,s7
80000090:	000b0693          	mv	a3,s6
80000094:	000a8293          	mv	t0,s5
80000098:	000a0f93          	mv	t6,s4
8000009c:	00098793          	mv	a5,s3
800000a0:	00040593          	mv	a1,s0
800000a4:	a3cf0f13          	addi	t5,t5,-1476 # 80000a3c <K>
800000a8:	04000493          	li	s1,64
800000ac:	13c97c63          	bgeu	s2,t3,800001e4 <_hash+0x1c8>
800000b0:	0685a883          	lw	a7,104(a1)
800000b4:	0345a803          	lw	a6,52(a1)
800000b8:	00f89713          	slli	a4,a7,0xf
800000bc:	0118d393          	srli	t2,a7,0x11
800000c0:	00e383b3          	add	t2,t2,a4
800000c4:	00d89d93          	slli	s11,a7,0xd
800000c8:	0138d713          	srli	a4,a7,0x13
800000cc:	01b70733          	add	a4,a4,s11
800000d0:	00e3c733          	xor	a4,t2,a4
800000d4:	00a8d893          	srli	a7,a7,0xa
800000d8:	0305a383          	lw	t2,48(a1)
800000dc:	01174733          	xor	a4,a4,a7
800000e0:	0545a883          	lw	a7,84(a1)
800000e4:	01981d93          	slli	s11,a6,0x19
800000e8:	007888b3          	add	a7,a7,t2
800000ec:	01170733          	add	a4,a4,a7
800000f0:	00785893          	srli	a7,a6,0x7
800000f4:	01b888b3          	add	a7,a7,s11
800000f8:	01285393          	srli	t2,a6,0x12
800000fc:	00e81d93          	slli	s11,a6,0xe
80000100:	01b383b3          	add	t2,t2,s11
80000104:	0078c3b3          	xor	t2,a7,t2
80000108:	00385893          	srli	a7,a6,0x3
8000010c:	0113c8b3          	xor	a7,t2,a7
80000110:	01170833          	add	a6,a4,a7
80000114:	01a69713          	slli	a4,a3,0x1a
80000118:	0066d893          	srli	a7,a3,0x6
8000011c:	00e888b3          	add	a7,a7,a4
80000120:	01569393          	slli	t2,a3,0x15
80000124:	00b6d713          	srli	a4,a3,0xb
80000128:	00770733          	add	a4,a4,t2
8000012c:	00e8c733          	xor	a4,a7,a4
80000130:	00769393          	slli	t2,a3,0x7
80000134:	0196d893          	srli	a7,a3,0x19
80000138:	007888b3          	add	a7,a7,t2
8000013c:	0705a823          	sw	a6,112(a1)
80000140:	01174733          	xor	a4,a4,a7
80000144:	fff6c893          	not	a7,a3
80000148:	000f2d83          	lw	s11,0(t5)
8000014c:	0056f3b3          	and	t2,a3,t0
80000150:	01f8f8b3          	and	a7,a7,t6
80000154:	0078c8b3          	xor	a7,a7,t2
80000158:	01170733          	add	a4,a4,a7
8000015c:	00265393          	srli	t2,a2,0x2
80000160:	01e61893          	slli	a7,a2,0x1e
80000164:	01b70733          	add	a4,a4,s11
80000168:	011383b3          	add	t2,t2,a7
8000016c:	01070733          	add	a4,a4,a6
80000170:	00d65893          	srli	a7,a2,0xd
80000174:	01361813          	slli	a6,a2,0x13
80000178:	010888b3          	add	a7,a7,a6
8000017c:	0113c8b3          	xor	a7,t2,a7
80000180:	01665813          	srli	a6,a2,0x16
80000184:	00a61393          	slli	t2,a2,0xa
80000188:	00780833          	add	a6,a6,t2
8000018c:	006ec3b3          	xor	t2,t4,t1
80000190:	0108c833          	xor	a6,a7,a6
80000194:	00c3f3b3          	and	t2,t2,a2
80000198:	006ef8b3          	and	a7,t4,t1
8000019c:	0113c8b3          	xor	a7,t2,a7
800001a0:	00f70733          	add	a4,a4,a5
800001a4:	01180833          	add	a6,a6,a7
800001a8:	001e0e13          	addi	t3,t3,1
800001ac:	00a708b3          	add	a7,a4,a0
800001b0:	00458593          	addi	a1,a1,4
800001b4:	01070733          	add	a4,a4,a6
800001b8:	004f0f13          	addi	t5,t5,4
800001bc:	00030513          	mv	a0,t1
800001c0:	000f8793          	mv	a5,t6
800001c4:	049e0663          	beq	t3,s1,80000210 <_hash+0x1f4>
800001c8:	00028f93          	mv	t6,t0
800001cc:	000e8313          	mv	t1,t4
800001d0:	00068293          	mv	t0,a3
800001d4:	00060e93          	mv	t4,a2
800001d8:	00088693          	mv	a3,a7
800001dc:	00070613          	mv	a2,a4
800001e0:	edc968e3          	bltu	s2,t3,800000b0 <_hash+0x94>
800001e4:	0005c803          	lbu	a6,0(a1)
800001e8:	0015c383          	lbu	t2,1(a1)
800001ec:	0035c883          	lbu	a7,3(a1)
800001f0:	0025c703          	lbu	a4,2(a1)
800001f4:	01881813          	slli	a6,a6,0x18
800001f8:	01039393          	slli	t2,t2,0x10
800001fc:	00786833          	or	a6,a6,t2
80000200:	01186833          	or	a6,a6,a7
80000204:	00871713          	slli	a4,a4,0x8
80000208:	00e86833          	or	a6,a6,a4
8000020c:	f09ff06f          	j	80000114 <_hash+0xf8>
80000210:	00ed0d33          	add	s10,s10,a4
80000214:	00cc8cb3          	add	s9,s9,a2
80000218:	01dc0c33          	add	s8,s8,t4
8000021c:	006b8bb3          	add	s7,s7,t1
80000220:	011b0b33          	add	s6,s6,a7
80000224:	00da8ab3          	add	s5,s5,a3
80000228:	005a0a33          	add	s4,s4,t0
8000022c:	01f989b3          	add	s3,s3,t6
80000230:	05a42023          	sw	s10,64(s0)
80000234:	05942223          	sw	s9,68(s0)
80000238:	05842423          	sw	s8,72(s0)
8000023c:	05742623          	sw	s7,76(s0)
80000240:	05642823          	sw	s6,80(s0)
80000244:	05542a23          	sw	s5,84(s0)
80000248:	05442c23          	sw	s4,88(s0)
8000024c:	05342e23          	sw	s3,92(s0)
80000250:	02c12403          	lw	s0,44(sp)
80000254:	02812483          	lw	s1,40(sp)
80000258:	02412903          	lw	s2,36(sp)
8000025c:	02012983          	lw	s3,32(sp)
80000260:	01c12a03          	lw	s4,28(sp)
80000264:	01812a83          	lw	s5,24(sp)
80000268:	01412b03          	lw	s6,20(sp)
8000026c:	01012b83          	lw	s7,16(sp)
80000270:	00c12c03          	lw	s8,12(sp)
80000274:	00812c83          	lw	s9,8(sp)
80000278:	00412d03          	lw	s10,4(sp)
8000027c:	00012d83          	lw	s11,0(sp)
80000280:	03010113          	addi	sp,sp,48
80000284:	00008067          	ret

80000288 <sha256_init>:
80000288:	06050863          	beqz	a0,800002f8 <sha256_init+0x70>
8000028c:	6a09e337          	lui	t1,0x6a09e
80000290:	bb67b8b7          	lui	a7,0xbb67b
80000294:	3c6ef837          	lui	a6,0x3c6ef
80000298:	a54ff5b7          	lui	a1,0xa54ff
8000029c:	510e5637          	lui	a2,0x510e5
800002a0:	9b0576b7          	lui	a3,0x9b057
800002a4:	1f83e737          	lui	a4,0x1f83e
800002a8:	5be0d7b7          	lui	a5,0x5be0d
800002ac:	66730313          	addi	t1,t1,1639 # 6a09e667 <_start-0x15f61999>
800002b0:	e8588893          	addi	a7,a7,-379 # bb67ae85 <fromhost+0x2b67ae45>
800002b4:	37280813          	addi	a6,a6,882 # 3c6ef372 <_start-0x43910c8e>
800002b8:	53a58593          	addi	a1,a1,1338 # a54ff53a <fromhost+0x154ff4fa>
800002bc:	27f60613          	addi	a2,a2,639 # 510e527f <_start-0x2ef1ad81>
800002c0:	88c68693          	addi	a3,a3,-1908 # 9b05688c <fromhost+0xb05684c>
800002c4:	9ab70713          	addi	a4,a4,-1621 # 1f83d9ab <_start-0x607c2655>
800002c8:	d1978793          	addi	a5,a5,-743 # 5be0cd19 <_start-0x241f32e7>
800002cc:	06052423          	sw	zero,104(a0)
800002d0:	06052223          	sw	zero,100(a0)
800002d4:	06052023          	sw	zero,96(a0)
800002d8:	04652023          	sw	t1,64(a0)
800002dc:	05152223          	sw	a7,68(a0)
800002e0:	05052423          	sw	a6,72(a0)
800002e4:	04b52623          	sw	a1,76(a0)
800002e8:	04c52823          	sw	a2,80(a0)
800002ec:	04d52a23          	sw	a3,84(a0)
800002f0:	04e52c23          	sw	a4,88(a0)
800002f4:	04f52e23          	sw	a5,92(a0)
800002f8:	00008067          	ret

800002fc <sha256_hash>:
800002fc:	0a050e63          	beqz	a0,800003b8 <sha256_hash+0xbc>
80000300:	0a058c63          	beqz	a1,800003b8 <sha256_hash+0xbc>
80000304:	06852783          	lw	a5,104(a0)
80000308:	03f00713          	li	a4,63
8000030c:	0af76663          	bltu	a4,a5,800003b8 <sha256_hash+0xbc>
80000310:	0a060463          	beqz	a2,800003b8 <sha256_hash+0xbc>
80000314:	00c58633          	add	a2,a1,a2
80000318:	04000813          	li	a6,64
8000031c:	0100006f          	j	8000032c <sha256_hash+0x30>
80000320:	00158593          	addi	a1,a1,1
80000324:	08c58a63          	beq	a1,a2,800003b8 <sha256_hash+0xbc>
80000328:	06852783          	lw	a5,104(a0)
8000032c:	00178713          	addi	a4,a5,1
80000330:	06e52423          	sw	a4,104(a0)
80000334:	0005c683          	lbu	a3,0(a1)
80000338:	00f507b3          	add	a5,a0,a5
8000033c:	00d78023          	sb	a3,0(a5)
80000340:	ff0710e3          	bne	a4,a6,80000320 <sha256_hash+0x24>
80000344:	fe010113          	addi	sp,sp,-32
80000348:	00112e23          	sw	ra,28(sp)
8000034c:	00c12623          	sw	a2,12(sp)
80000350:	00b12423          	sw	a1,8(sp)
80000354:	00a12223          	sw	a0,4(sp)
80000358:	cc5ff0ef          	jal	8000001c <_hash>
8000035c:	00412503          	lw	a0,4(sp)
80000360:	dff00693          	li	a3,-513
80000364:	00812583          	lw	a1,8(sp)
80000368:	06052783          	lw	a5,96(a0)
8000036c:	00c12603          	lw	a2,12(sp)
80000370:	04000813          	li	a6,64
80000374:	20078713          	addi	a4,a5,512
80000378:	00f6f863          	bgeu	a3,a5,80000388 <sha256_hash+0x8c>
8000037c:	06452783          	lw	a5,100(a0)
80000380:	00178793          	addi	a5,a5,1
80000384:	06f52223          	sw	a5,100(a0)
80000388:	06e52023          	sw	a4,96(a0)
8000038c:	06052423          	sw	zero,104(a0)
80000390:	00158593          	addi	a1,a1,1
80000394:	02c58463          	beq	a1,a2,800003bc <sha256_hash+0xc0>
80000398:	06852783          	lw	a5,104(a0)
8000039c:	00178713          	addi	a4,a5,1
800003a0:	06e52423          	sw	a4,104(a0)
800003a4:	0005c683          	lbu	a3,0(a1)
800003a8:	00f507b3          	add	a5,a0,a5
800003ac:	00d78023          	sb	a3,0(a5)
800003b0:	ff0710e3          	bne	a4,a6,80000390 <sha256_hash+0x94>
800003b4:	f99ff06f          	j	8000034c <sha256_hash+0x50>
800003b8:	00008067          	ret
800003bc:	01c12083          	lw	ra,28(sp)
800003c0:	02010113          	addi	sp,sp,32
800003c4:	00008067          	ret

800003c8 <sha256_done>:
800003c8:	18050263          	beqz	a0,8000054c <sha256_done+0x184>
800003cc:	06852683          	lw	a3,104(a0)
800003d0:	fe010113          	addi	sp,sp,-32
800003d4:	f8000813          	li	a6,-128
800003d8:	03f6f613          	andi	a2,a3,63
800003dc:	00c50733          	add	a4,a0,a2
800003e0:	00112e23          	sw	ra,28(sp)
800003e4:	01070023          	sb	a6,0(a4)
800003e8:	00150793          	addi	a5,a0,1
800003ec:	03f00813          	li	a6,63
800003f0:	00c787b3          	add	a5,a5,a2
800003f4:	04050713          	addi	a4,a0,64
800003f8:	11060e63          	beq	a2,a6,80000514 <sha256_done+0x14c>
800003fc:	00078023          	sb	zero,0(a5)
80000400:	00178793          	addi	a5,a5,1
80000404:	fef71ce3          	bne	a4,a5,800003fc <sha256_done+0x34>
80000408:	03700793          	li	a5,55
8000040c:	10d7e463          	bltu	a5,a3,80000514 <sha256_done+0x14c>
80000410:	06052783          	lw	a5,96(a0)
80000414:	00369693          	slli	a3,a3,0x3
80000418:	06452703          	lw	a4,100(a0)
8000041c:	00f687b3          	add	a5,a3,a5
80000420:	00d7f663          	bgeu	a5,a3,8000042c <sha256_done+0x64>
80000424:	00170713          	addi	a4,a4,1
80000428:	06e52223          	sw	a4,100(a0)
8000042c:	01079693          	slli	a3,a5,0x10
80000430:	01071813          	slli	a6,a4,0x10
80000434:	00879893          	slli	a7,a5,0x8
80000438:	0186d613          	srli	a2,a3,0x18
8000043c:	01885693          	srli	a3,a6,0x18
80000440:	00871813          	slli	a6,a4,0x8
80000444:	01160633          	add	a2,a2,a7
80000448:	010686b3          	add	a3,a3,a6
8000044c:	0107d313          	srli	t1,a5,0x10
80000450:	01075813          	srli	a6,a4,0x10
80000454:	0187d893          	srli	a7,a5,0x18
80000458:	01875713          	srli	a4,a4,0x18
8000045c:	06f52023          	sw	a5,96(a0)
80000460:	02c51f23          	sh	a2,62(a0)
80000464:	02d51d23          	sh	a3,58(a0)
80000468:	02650ea3          	sb	t1,61(a0)
8000046c:	03150e23          	sb	a7,60(a0)
80000470:	03050ca3          	sb	a6,57(a0)
80000474:	02e50c23          	sb	a4,56(a0)
80000478:	00b12023          	sw	a1,0(sp)
8000047c:	00a12223          	sw	a0,4(sp)
80000480:	b9dff0ef          	jal	8000001c <_hash>
80000484:	00012583          	lw	a1,0(sp)
80000488:	08058063          	beqz	a1,80000508 <sha256_done+0x140>
8000048c:	00412503          	lw	a0,4(sp)
80000490:	01800713          	li	a4,24
80000494:	ff800613          	li	a2,-8
80000498:	04052683          	lw	a3,64(a0)
8000049c:	01f77793          	andi	a5,a4,31
800004a0:	ff870713          	addi	a4,a4,-8
800004a4:	00f6d6b3          	srl	a3,a3,a5
800004a8:	00d58023          	sb	a3,0(a1)
800004ac:	04452683          	lw	a3,68(a0)
800004b0:	00158593          	addi	a1,a1,1
800004b4:	00f6d6b3          	srl	a3,a3,a5
800004b8:	00d581a3          	sb	a3,3(a1)
800004bc:	04852683          	lw	a3,72(a0)
800004c0:	00f6d6b3          	srl	a3,a3,a5
800004c4:	00d583a3          	sb	a3,7(a1)
800004c8:	04c52683          	lw	a3,76(a0)
800004cc:	00f6d6b3          	srl	a3,a3,a5
800004d0:	00d585a3          	sb	a3,11(a1)
800004d4:	05052683          	lw	a3,80(a0)
800004d8:	00f6d6b3          	srl	a3,a3,a5
800004dc:	00d587a3          	sb	a3,15(a1)
800004e0:	05452683          	lw	a3,84(a0)
800004e4:	00f6d6b3          	srl	a3,a3,a5
800004e8:	00d589a3          	sb	a3,19(a1)
800004ec:	05852683          	lw	a3,88(a0)
800004f0:	00f6d6b3          	srl	a3,a3,a5
800004f4:	00d58ba3          	sb	a3,23(a1)
800004f8:	05c52683          	lw	a3,92(a0)
800004fc:	00f6d7b3          	srl	a5,a3,a5
80000500:	00f58da3          	sb	a5,27(a1)
80000504:	f8c71ae3          	bne	a4,a2,80000498 <sha256_done+0xd0>
80000508:	01c12083          	lw	ra,28(sp)
8000050c:	02010113          	addi	sp,sp,32
80000510:	00008067          	ret
80000514:	00b12623          	sw	a1,12(sp)
80000518:	00e12423          	sw	a4,8(sp)
8000051c:	00d12223          	sw	a3,4(sp)
80000520:	00a12023          	sw	a0,0(sp)
80000524:	af9ff0ef          	jal	8000001c <_hash>
80000528:	00012503          	lw	a0,0(sp)
8000052c:	00412683          	lw	a3,4(sp)
80000530:	00812703          	lw	a4,8(sp)
80000534:	00c12583          	lw	a1,12(sp)
80000538:	00050793          	mv	a5,a0
8000053c:	0007a023          	sw	zero,0(a5)
80000540:	00478793          	addi	a5,a5,4
80000544:	fef71ce3          	bne	a4,a5,8000053c <sha256_done+0x174>
80000548:	ec9ff06f          	j	80000410 <sha256_done+0x48>
8000054c:	00008067          	ret

80000550 <sha256>:
80000550:	e8010113          	addi	sp,sp,-384
80000554:	00058f13          	mv	t5,a1
80000558:	6a09eeb7          	lui	t4,0x6a09e
8000055c:	bb67be37          	lui	t3,0xbb67b
80000560:	3c6ef337          	lui	t1,0x3c6ef
80000564:	a54ff8b7          	lui	a7,0xa54ff
80000568:	510e5837          	lui	a6,0x510e5
8000056c:	9b0576b7          	lui	a3,0x9b057
80000570:	1f83e737          	lui	a4,0x1f83e
80000574:	5be0d7b7          	lui	a5,0x5be0d
80000578:	16812c23          	sw	s0,376(sp)
8000057c:	00050593          	mv	a1,a0
80000580:	00060413          	mv	s0,a2
80000584:	667e8e93          	addi	t4,t4,1639 # 6a09e667 <_start-0x15f61999>
80000588:	e85e0e13          	addi	t3,t3,-379 # bb67ae85 <fromhost+0x2b67ae45>
8000058c:	37230313          	addi	t1,t1,882 # 3c6ef372 <_start-0x43910c8e>
80000590:	53a88893          	addi	a7,a7,1338 # a54ff53a <fromhost+0x154ff4fa>
80000594:	27f80813          	addi	a6,a6,639 # 510e527f <_start-0x2ef1ad81>
80000598:	88c68693          	addi	a3,a3,-1908 # 9b05688c <fromhost+0xb05684c>
8000059c:	9ab70713          	addi	a4,a4,-1621 # 1f83d9ab <_start-0x607c2655>
800005a0:	d1978793          	addi	a5,a5,-743 # 5be0cd19 <_start-0x241f32e7>
800005a4:	00010513          	mv	a0,sp
800005a8:	000f0613          	mv	a2,t5
800005ac:	16112e23          	sw	ra,380(sp)
800005b0:	05d12023          	sw	t4,64(sp)
800005b4:	05c12223          	sw	t3,68(sp)
800005b8:	04612423          	sw	t1,72(sp)
800005bc:	05112623          	sw	a7,76(sp)
800005c0:	05012823          	sw	a6,80(sp)
800005c4:	04d12a23          	sw	a3,84(sp)
800005c8:	04e12c23          	sw	a4,88(sp)
800005cc:	04f12e23          	sw	a5,92(sp)
800005d0:	06012423          	sw	zero,104(sp)
800005d4:	06012223          	sw	zero,100(sp)
800005d8:	06012023          	sw	zero,96(sp)
800005dc:	d21ff0ef          	jal	800002fc <sha256_hash>
800005e0:	00040593          	mv	a1,s0
800005e4:	00010513          	mv	a0,sp
800005e8:	de1ff0ef          	jal	800003c8 <sha256_done>
800005ec:	17c12083          	lw	ra,380(sp)
800005f0:	17812403          	lw	s0,376(sp)
800005f4:	18010113          	addi	sp,sp,384
800005f8:	00008067          	ret

800005fc <strlen>:
800005fc:	00054783          	lbu	a5,0(a0)
80000600:	00078c63          	beqz	a5,80000618 <strlen+0x1c>
80000604:	00000793          	li	a5,0
80000608:	00178793          	addi	a5,a5,1
8000060c:	00f50733          	add	a4,a0,a5
80000610:	00074703          	lbu	a4,0(a4)
80000614:	fe071ae3          	bnez	a4,80000608 <strlen+0xc>
80000618:	00078513          	mv	a0,a5
8000061c:	00008067          	ret

80000620 <main>:
80000620:	800017b7          	lui	a5,0x80001
80000624:	a3c78793          	addi	a5,a5,-1476 # 80000a3c <K>
80000628:	1047a683          	lw	a3,260(a5)
8000062c:	1087a703          	lw	a4,264(a5)
80000630:	e1010113          	addi	sp,sp,-496
80000634:	1007a603          	lw	a2,256(a5)
80000638:	02d12223          	sw	a3,36(sp)
8000063c:	02e12423          	sw	a4,40(sp)
80000640:	1107a683          	lw	a3,272(a5)
80000644:	1147a703          	lw	a4,276(a5)
80000648:	02c12023          	sw	a2,32(sp)
8000064c:	10c7a603          	lw	a2,268(a5)
80000650:	02d12823          	sw	a3,48(sp)
80000654:	02e12a23          	sw	a4,52(sp)
80000658:	11c7a683          	lw	a3,284(a5)
8000065c:	1207a703          	lw	a4,288(a5)
80000660:	02c12623          	sw	a2,44(sp)
80000664:	1187a603          	lw	a2,280(a5)
80000668:	02d12e23          	sw	a3,60(sp)
8000066c:	04e12023          	sw	a4,64(sp)
80000670:	1247a683          	lw	a3,292(a5)
80000674:	1287a703          	lw	a4,296(a5)
80000678:	12c7a783          	lw	a5,300(a5)
8000067c:	1e812423          	sw	s0,488(sp)
80000680:	1e912223          	sw	s1,484(sp)
80000684:	1f212023          	sw	s2,480(sp)
80000688:	1d312e23          	sw	s3,476(sp)
8000068c:	1d412c23          	sw	s4,472(sp)
80000690:	1d512a23          	sw	s5,468(sp)
80000694:	1d612823          	sw	s6,464(sp)
80000698:	1d712623          	sw	s7,460(sp)
8000069c:	1d812423          	sw	s8,456(sp)
800006a0:	1e112623          	sw	ra,492(sp)
800006a4:	02c12c23          	sw	a2,56(sp)
800006a8:	6a09ebb7          	lui	s7,0x6a09e
800006ac:	bb67bb37          	lui	s6,0xbb67b
800006b0:	3c6efab7          	lui	s5,0x3c6ef
800006b4:	a54ffa37          	lui	s4,0xa54ff
800006b8:	510e59b7          	lui	s3,0x510e5
800006bc:	9b057937          	lui	s2,0x9b057
800006c0:	1f83e4b7          	lui	s1,0x1f83e
800006c4:	04d12223          	sw	a3,68(sp)
800006c8:	667b8b93          	addi	s7,s7,1639 # 6a09e667 <_start-0x15f61999>
800006cc:	04e12423          	sw	a4,72(sp)
800006d0:	04f12623          	sw	a5,76(sp)
800006d4:	e85b0b13          	addi	s6,s6,-379 # bb67ae85 <fromhost+0x2b67ae45>
800006d8:	372a8a93          	addi	s5,s5,882 # 3c6ef372 <_start-0x43910c8e>
800006dc:	53aa0a13          	addi	s4,s4,1338 # a54ff53a <fromhost+0x154ff4fa>
800006e0:	27f98993          	addi	s3,s3,639 # 510e527f <_start-0x2ef1ad81>
800006e4:	88c90913          	addi	s2,s2,-1908 # 9b05688c <fromhost+0xb05684c>
800006e8:	9ab48493          	addi	s1,s1,-1621 # 1f83d9ab <_start-0x607c2655>
800006ec:	02010c13          	addi	s8,sp,32
800006f0:	05010413          	addi	s0,sp,80
800006f4:	000c2583          	lw	a1,0(s8)
800006f8:	00000613          	li	a2,0
800006fc:	0005c783          	lbu	a5,0(a1)
80000700:	00078a63          	beqz	a5,80000714 <main+0xf4>
80000704:	00160613          	addi	a2,a2,1
80000708:	00c587b3          	add	a5,a1,a2
8000070c:	0007c783          	lbu	a5,0(a5)
80000710:	fe079ae3          	bnez	a5,80000704 <main+0xe4>
80000714:	5be0d7b7          	lui	a5,0x5be0d
80000718:	d1978793          	addi	a5,a5,-743 # 5be0cd19 <_start-0x241f32e7>
8000071c:	00040513          	mv	a0,s0
80000720:	0af12623          	sw	a5,172(sp)
80000724:	0a012c23          	sw	zero,184(sp)
80000728:	0a012a23          	sw	zero,180(sp)
8000072c:	0a012823          	sw	zero,176(sp)
80000730:	09712823          	sw	s7,144(sp)
80000734:	09612a23          	sw	s6,148(sp)
80000738:	09512c23          	sw	s5,152(sp)
8000073c:	09412e23          	sw	s4,156(sp)
80000740:	0b312023          	sw	s3,160(sp)
80000744:	0b212223          	sw	s2,164(sp)
80000748:	0a912423          	sw	s1,168(sp)
8000074c:	bb1ff0ef          	jal	800002fc <sha256_hash>
80000750:	00010593          	mv	a1,sp
80000754:	00040513          	mv	a0,s0
80000758:	008c0c13          	addi	s8,s8,8
8000075c:	c6dff0ef          	jal	800003c8 <sha256_done>
80000760:	f9841ae3          	bne	s0,s8,800006f4 <main+0xd4>
80000764:	1ec12083          	lw	ra,492(sp)
80000768:	1e812403          	lw	s0,488(sp)
8000076c:	1e412483          	lw	s1,484(sp)
80000770:	1e012903          	lw	s2,480(sp)
80000774:	1dc12983          	lw	s3,476(sp)
80000778:	1d812a03          	lw	s4,472(sp)
8000077c:	1d412a83          	lw	s5,468(sp)
80000780:	1d012b03          	lw	s6,464(sp)
80000784:	1cc12b83          	lw	s7,460(sp)
80000788:	1c812c03          	lw	s8,456(sp)
8000078c:	00000513          	li	a0,0
80000790:	1f010113          	addi	sp,sp,496
80000794:	00008067          	ret

Disassembly of section .rodata:

80000798 <K-0x2a4>:
80000798:	3365                	.insn	2, 0x3365
8000079a:	3062                	.insn	2, 0x3062
8000079c:	32343463          	.insn	4, 0x32343463
800007a0:	3920                	.insn	2, 0x3920
800007a2:	6638                	.insn	2, 0x6638
800007a4:	31633163          	.insn	4, 0x31633163
800007a8:	2034                	.insn	2, 0x2034
800007aa:	6139                	.insn	2, 0x6139
800007ac:	6266                	.insn	2, 0x6266
800007ae:	3466                	.insn	2, 0x3466
800007b0:	39203863          	.insn	4, 0x39203863
800007b4:	3639                	.insn	2, 0x3639
800007b6:	6266                	.insn	2, 0x6266
800007b8:	3239                	.insn	2, 0x3239
800007ba:	2034                	.insn	2, 0x2034
800007bc:	3732                	.insn	2, 0x3732
800007be:	6561                	.insn	2, 0x6561
800007c0:	3134                	.insn	2, 0x3134
800007c2:	3465                	.insn	2, 0x3465
800007c4:	3620                	.insn	2, 0x3620
800007c6:	3934                	.insn	2, 0x3934
800007c8:	3962                	.insn	2, 0x3962
800007ca:	20633433          	.insn	4, 0x20633433
800007ce:	3461                	.insn	2, 0x3461
800007d0:	3539                	.insn	2, 0x3539
800007d2:	3939                	.insn	2, 0x3939
800007d4:	6231                	.insn	2, 0x6231
800007d6:	3720                	.insn	2, 0x3720
800007d8:	3538                	.insn	2, 0x3538
800007da:	6232                	.insn	2, 0x6232
800007dc:	3538                	.insn	2, 0x3538
800007de:	0035                	.insn	2, 0x0035
800007e0:	6261                	.insn	2, 0x6261
800007e2:	61620063          	beq	tp,s6,80000de2 <K+0x3a6>
800007e6:	36313837          	lui	a6,0x36313
800007ea:	6662                	.insn	2, 0x6662
800007ec:	3820                	.insn	2, 0x3820
800007ee:	3066                	.insn	2, 0x3066
800007f0:	6331                	.insn	2, 0x6331
800007f2:	6566                	.insn	2, 0x6566
800007f4:	2061                	.insn	2, 0x2061
800007f6:	3134                	.insn	2, 0x3134
800007f8:	3134                	.insn	2, 0x3134
800007fa:	3034                	.insn	2, 0x3034
800007fc:	6564                	.insn	2, 0x6564
800007fe:	3520                	.insn	2, 0x3520
80000800:	6164                	.insn	2, 0x6164
80000802:	3265                	.insn	2, 0x3265
80000804:	3232                	.insn	2, 0x3232
80000806:	30622033          	.insn	4, 0x30622033
8000080a:	3330                	.insn	2, 0x3330
8000080c:	3136                	.insn	2, 0x3136
8000080e:	3361                	.insn	2, 0x3361
80000810:	3920                	.insn	2, 0x3920
80000812:	3136                	.insn	2, 0x3136
80000814:	39613737          	lui	a4,0x39613
80000818:	34622063          	.insn	4, 0x34622063
8000081c:	3031                	.insn	2, 0x3031
8000081e:	6666                	.insn	2, 0x6666
80000820:	3136                	.insn	2, 0x3136
80000822:	6620                	.insn	2, 0x6620
80000824:	3032                	.insn	2, 0x3032
80000826:	3130                	.insn	2, 0x3130
80000828:	6135                	.insn	2, 0x6135
8000082a:	0064                	.insn	2, 0x0064
8000082c:	6261                	.insn	2, 0x6261
8000082e:	63626463          	bltu	tp,s6,80000e56 <K+0x41a>
80000832:	6564                	.insn	2, 0x6564
80000834:	66656463          	bltu	a0,t1,80000e9c <K+0x460>
80000838:	6564                	.insn	2, 0x6564
8000083a:	6766                	.insn	2, 0x6766
8000083c:	6665                	.insn	2, 0x6665
8000083e:	67666867          	.insn	4, 0x67666867
80000842:	6968                	.insn	2, 0x6968
80000844:	6a696867          	.insn	4, 0x6a696867
80000848:	6968                	.insn	2, 0x6968
8000084a:	6b6a                	.insn	2, 0x6b6a
8000084c:	6a69                	.insn	2, 0x6a69
8000084e:	6b6a6c6b          	.insn	4, 0x6b6a6c6b
80000852:	6d6c                	.insn	2, 0x6d6c
80000854:	6e6d6c6b          	.insn	4, 0x6e6d6c6b
80000858:	6d6c                	.insn	2, 0x6d6c
8000085a:	6f6e                	.insn	2, 0x6f6e
8000085c:	6e6d                	.insn	2, 0x6e6d
8000085e:	6f6e706f          	j	800e7f54 <K+0xe7518>
80000862:	7170                	.insn	2, 0x7170
80000864:	0000                	.insn	2, 0x0000
80000866:	0000                	.insn	2, 0x0000
80000868:	3432                	.insn	2, 0x3432
8000086a:	6438                	.insn	2, 0x6438
8000086c:	6136                	.insn	2, 0x6136
8000086e:	3136                	.insn	2, 0x3136
80000870:	6420                	.insn	2, 0x6420
80000872:	3032                	.insn	2, 0x3032
80000874:	3336                	.insn	2, 0x3336
80000876:	6238                	.insn	2, 0x6238
80000878:	2038                	.insn	2, 0x2038
8000087a:	3565                	.insn	2, 0x3565
8000087c:	36323063          	.insn	4, 0x36323063
80000880:	3339                	.insn	2, 0x3339
80000882:	3020                	.insn	2, 0x3020
80000884:	36653363          	.insn	4, 0x36653363
80000888:	3330                	.insn	2, 0x3330
8000088a:	2039                	.insn	2, 0x2039
8000088c:	3361                	.insn	2, 0x3361
8000088e:	34656333          	.insn	4, 0x34656333
80000892:	3935                	.insn	2, 0x3935
80000894:	3620                	.insn	2, 0x3620
80000896:	6634                	.insn	2, 0x6634
80000898:	3266                	.insn	2, 0x3266
8000089a:	3631                	.insn	2, 0x3631
8000089c:	36662037          	lui	zero,0x36662
800008a0:	6365                	.insn	2, 0x6365
800008a2:	6465                	.insn	2, 0x6465
800008a4:	3464                	.insn	2, 0x3464
800008a6:	3120                	.insn	2, 0x3120
800008a8:	6439                	.insn	2, 0x6439
800008aa:	3062                	.insn	2, 0x3062
800008ac:	6336                	.insn	2, 0x6336
800008ae:	0031                	.insn	2, 0x0031
800008b0:	6854                	.insn	2, 0x6854
800008b2:	2065                	.insn	2, 0x2065
800008b4:	7571                	.insn	2, 0x7571
800008b6:	6369                	.insn	2, 0x6369
800008b8:	7262206b          	.insn	4, 0x7262206b
800008bc:	206e776f          	jal	a4,800e7ac2 <K+0xe7086>
800008c0:	6f66                	.insn	2, 0x6f66
800008c2:	2078                	.insn	2, 0x2078
800008c4:	756a                	.insn	2, 0x756a
800008c6:	706d                	.insn	2, 0x706d
800008c8:	766f2073          	.insn	4, 0x766f2073
800008cc:	7265                	.insn	2, 0x7265
800008ce:	7420                	.insn	2, 0x7420
800008d0:	6568                	.insn	2, 0x6568
800008d2:	6c20                	.insn	2, 0x6c20
800008d4:	7a61                	.insn	2, 0x7a61
800008d6:	2079                	.insn	2, 0x2079
800008d8:	6f64                	.insn	2, 0x6f64
800008da:	37640067          	jr	886(s0)
800008de:	3861                	.insn	2, 0x3861
800008e0:	6266                	.insn	2, 0x6266
800008e2:	3362                	.insn	2, 0x3362
800008e4:	3020                	.insn	2, 0x3020
800008e6:	38376437          	lui	s0,0x38376
800008ea:	3930                	.insn	2, 0x3930
800008ec:	2034                	.insn	2, 0x2034
800008ee:	3936                	.insn	2, 0x3936
800008f0:	61396163          	bltu	s2,s3,80000ef2 <K+0x4b6>
800008f4:	6362                	.insn	2, 0x6362
800008f6:	6220                	.insn	2, 0x6220
800008f8:	3030                	.insn	2, 0x3030
800008fa:	3238                	.insn	2, 0x3238
800008fc:	3465                	.insn	2, 0x3465
800008fe:	2066                	.insn	2, 0x2066
80000900:	6438                	.insn	2, 0x6438
80000902:	3635                	.insn	2, 0x3635
80000904:	3135                	.insn	2, 0x3135
80000906:	3465                	.insn	2, 0x3465
80000908:	3620                	.insn	2, 0x3620
8000090a:	3364                	.insn	2, 0x3364
8000090c:	37626463          	bltu	tp,s6,80000c74 <K+0x238>
80000910:	2036                	.insn	2, 0x2036
80000912:	6432                	.insn	2, 0x6432
80000914:	3230                	.insn	2, 0x3230
80000916:	3064                	.insn	2, 0x3064
80000918:	6662                	.insn	2, 0x6662
8000091a:	3320                	.insn	2, 0x3320
8000091c:	65396337          	lui	t1,0x65396
80000920:	3935                	.insn	2, 0x3935
80000922:	0032                	.insn	2, 0x0032
80000924:	6854                	.insn	2, 0x6854
80000926:	2065                	.insn	2, 0x2065
80000928:	7571                	.insn	2, 0x7571
8000092a:	6369                	.insn	2, 0x6369
8000092c:	7262206b          	.insn	4, 0x7262206b
80000930:	206e776f          	jal	a4,800e7b36 <K+0xe70fa>
80000934:	6f66                	.insn	2, 0x6f66
80000936:	2078                	.insn	2, 0x2078
80000938:	756a                	.insn	2, 0x756a
8000093a:	706d                	.insn	2, 0x706d
8000093c:	766f2073          	.insn	4, 0x766f2073
80000940:	7265                	.insn	2, 0x7265
80000942:	7420                	.insn	2, 0x7420
80000944:	6568                	.insn	2, 0x6568
80000946:	6c20                	.insn	2, 0x6c20
80000948:	7a61                	.insn	2, 0x7a61
8000094a:	2079                	.insn	2, 0x2079
8000094c:	00676f63          	bltu	a4,t1,8000096a <main+0x34a>
80000950:	3465                	.insn	2, 0x3465
80000952:	38643463          	.insn	4, 0x38643463
80000956:	3366                	.insn	2, 0x3366
80000958:	6220                	.insn	2, 0x6220
8000095a:	3766                	.insn	2, 0x3766
8000095c:	6236                	.insn	2, 0x6236
8000095e:	3936                	.insn	2, 0x3936
80000960:	2032                	.insn	2, 0x2032
80000962:	6564                	.insn	2, 0x6564
80000964:	61313937          	lui	s2,0x61313
80000968:	3731                	.insn	2, 0x3731
8000096a:	3320                	.insn	2, 0x3320
8000096c:	3065                	.insn	2, 0x3065
8000096e:	3335                	.insn	2, 0x3335
80000970:	3132                	.insn	2, 0x3132
80000972:	2031                	.insn	2, 0x2031
80000974:	3035                	.insn	2, 0x3035
80000976:	3766                	.insn	2, 0x3766
80000978:	3361                	.insn	2, 0x3361
8000097a:	3534                	.insn	2, 0x3534
8000097c:	6220                	.insn	2, 0x6220
8000097e:	3634                	.insn	2, 0x3634
80000980:	3834                	.insn	2, 0x3834
80000982:	6634                	.insn	2, 0x6634
80000984:	2065                	.insn	2, 0x2065
80000986:	3234                	.insn	2, 0x3234
80000988:	61366637          	lui	a2,0x61366
8000098c:	37206363          	bltu	zero,s2,80000cf2 <K+0x2b6>
80000990:	6365                	.insn	2, 0x6365
80000992:	62313863          	.insn	4, 0x62313863
80000996:	0065                	.insn	2, 0x0065
80000998:	6862                	.insn	2, 0x6862
8000099a:	356e                	.insn	2, 0x356e
8000099c:	6a62                	.insn	2, 0x6a62
8000099e:	6f6d                	.insn	2, 0x6f6d
800009a0:	696e                	.insn	2, 0x696e
800009a2:	7265                	.insn	2, 0x7265
800009a4:	7174                	.insn	2, 0x7174
800009a6:	6165                	.insn	2, 0x6165
800009a8:	3034                	.insn	2, 0x3034
800009aa:	326f7277          	.insn	4, 0x326f7277
800009ae:	7075                	.insn	2, 0x7075
800009b0:	6679                	.insn	2, 0x6679
800009b2:	6b6c                	.insn	2, 0x6b6c
800009b4:	6479                	.insn	2, 0x6479
800009b6:	73626973          	.insn	4, 0x73626973
800009ba:	6c79386b          	.insn	4, 0x6c79386b
800009be:	62676d6b          	.insn	4, 0x62676d6b
800009c2:	7776                	.insn	2, 0x7776
800009c4:	3469                	.insn	2, 0x3469
800009c6:	3032                	.insn	2, 0x3032
800009c8:	3474                	.insn	2, 0x3474
800009ca:	6334                	.insn	2, 0x6334
800009cc:	3071                	.insn	2, 0x3071
800009ce:	6f653433          	.insn	4, 0x6f653433
800009d2:	3175                	.insn	2, 0x3175
800009d4:	31637a73          	.insn	4, 0x31637a73
800009d8:	6b6d306b          	.insn	4, 0x6b6d306b
800009dc:	3634                	.insn	2, 0x3634
800009de:	3762656f          	jal	a0,80026d54 <K+0x26318>
800009e2:	6d7a746b          	.insn	4, 0x6d7a746b
800009e6:	786c                	.insn	2, 0x786c
800009e8:	6b71                	.insn	2, 0x6b71
800009ea:	7462                	.insn	2, 0x7462
800009ec:	3265                	.insn	2, 0x3265
800009ee:	00007973          	.insn	4, 0x7973
800009f2:	0000                	.insn	2, 0x0000
800009f4:	3039                	.insn	2, 0x3039
800009f6:	3538                	.insn	2, 0x3538
800009f8:	6664                	.insn	2, 0x6664
800009fa:	6632                	.insn	2, 0x6632
800009fc:	3020                	.insn	2, 0x3020
800009fe:	6532                	.insn	2, 0x6532
80000a00:	6330                	.insn	2, 0x6330
80000a02:	20353463          	.insn	4, 0x20353463
80000a06:	3935                	.insn	2, 0x3935
80000a08:	3832                	.insn	2, 0x3832
80000a0a:	3064                	.insn	2, 0x3064
80000a0c:	3566                	.insn	2, 0x3566
80000a0e:	3120                	.insn	2, 0x3120
80000a10:	3262                	.insn	2, 0x3262
80000a12:	62346237          	lui	tp,0x62346
80000a16:	2066                	.insn	2, 0x2066
80000a18:	6431                	.insn	2, 0x6431
80000a1a:	6339                	.insn	2, 0x6339
80000a1c:	3264                	.insn	2, 0x3264
80000a1e:	3036                	.insn	2, 0x3036
80000a20:	6120                	.insn	2, 0x6120
80000a22:	3636                	.insn	2, 0x3636
80000a24:	6465                	.insn	2, 0x6465
80000a26:	6631                	.insn	2, 0x6631
80000a28:	2064                	.insn	2, 0x2064
80000a2a:	3161                	.insn	2, 0x3161
80000a2c:	6231                	.insn	2, 0x6231
80000a2e:	6130                	.insn	2, 0x6130
80000a30:	66206633          	.insn	4, 0x66206633
80000a34:	3735                	.insn	2, 0x3735
80000a36:	3635                	.insn	2, 0x3635
80000a38:	3964                	.insn	2, 0x3964
80000a3a:	0039                	.insn	2, 0x0039

80000a3c <K>:
80000a3c:	2f98                	.insn	2, 0x2f98
80000a3e:	428a                	.insn	2, 0x428a
80000a40:	4491                	.insn	2, 0x4491
80000a42:	fbcf7137          	lui	sp,0xfbcf7
80000a46:	b5c0                	.insn	2, 0xb5c0
80000a48:	dba5                	.insn	2, 0xdba5
80000a4a:	e9b5                	.insn	2, 0xe9b5
80000a4c:	3956c25b          	.insn	4, 0x3956c25b
80000a50:	11f1                	.insn	2, 0x11f1
80000a52:	59f1                	.insn	2, 0x59f1
80000a54:	82a4                	.insn	2, 0x82a4
80000a56:	5ed5923f aa98ab1c 	.insn	8, 0xaa98ab1c5ed5923f
80000a5e:	5b01d807          	.insn	4, 0x5b01d807
80000a62:	85be1283          	lh	t0,-1957(t3)
80000a66:	2431                	.insn	2, 0x2431
80000a68:	550c7dc3          	.insn	4, 0x550c7dc3
80000a6c:	5d74                	.insn	2, 0x5d74
80000a6e:	72be                	.insn	2, 0x72be
80000a70:	b1fe                	.insn	2, 0xb1fe
80000a72:	80de                	.insn	2, 0x80de
80000a74:	9bdc06a7          	.insn	4, 0x9bdc06a7
80000a78:	f174                	.insn	2, 0xf174
80000a7a:	69c1c19b          	.insn	4, 0x69c1c19b
80000a7e:	4786e49b          	.insn	4, 0x4786e49b
80000a82:	efbe                	.insn	2, 0xefbe
80000a84:	9dc6                	.insn	2, 0x9dc6
80000a86:	0fc1                	.insn	2, 0x0fc1
80000a88:	a1cc                	.insn	2, 0xa1cc
80000a8a:	240c                	.insn	2, 0x240c
80000a8c:	2de92c6f          	jal	s8,80092d6a <K+0x9232e>
80000a90:	84aa                	.insn	2, 0x84aa
80000a92:	4a74                	.insn	2, 0x4a74
80000a94:	a9dc                	.insn	2, 0xa9dc
80000a96:	5cb0                	.insn	2, 0x5cb0
80000a98:	88da                	.insn	2, 0x88da
80000a9a:	76f9                	.insn	2, 0x76f9
80000a9c:	5152                	.insn	2, 0x5152
80000a9e:	983e                	.insn	2, 0x983e
80000aa0:	c66d                	.insn	2, 0xc66d
80000aa2:	a831                	.insn	2, 0xa831
80000aa4:	27c8                	.insn	2, 0x27c8
80000aa6:	7fc7b003          	.insn	4, 0x7fc7b003
80000aaa:	bf59                	.insn	2, 0xbf59
80000aac:	c6e00bf3          	.insn	4, 0xc6e00bf3
80000ab0:	d5a79147          	.insn	4, 0xd5a79147
80000ab4:	6351                	.insn	2, 0x6351
80000ab6:	06ca                	.insn	2, 0x06ca
80000ab8:	14292967          	.insn	4, 0x14292967
80000abc:	0a85                	.insn	2, 0x0a85
80000abe:	213827b7          	lui	a5,0x21382
80000ac2:	6dfc2e1b          	.insn	4, 0x6dfc2e1b
80000ac6:	4d2c                	.insn	2, 0x4d2c
80000ac8:	53380d13          	addi	s10,a6,1331 # 36313533 <_start-0x49cecacd>
80000acc:	7354                	.insn	2, 0x7354
80000ace:	650a                	.insn	2, 0x650a
80000ad0:	766a0abb          	.insn	4, 0x766a0abb
80000ad4:	c92e                	.insn	2, 0xc92e
80000ad6:	81c2                	.insn	2, 0x81c2
80000ad8:	2c85                	.insn	2, 0x2c85
80000ada:	9272                	.insn	2, 0x9272
80000adc:	e8a1                	.insn	2, 0xe8a1
80000ade:	664ba2bf 8b70a81a 	.insn	8, 0x8b70a81a664ba2bf
80000ae6:	51a3c24b          	.insn	4, 0x51a3c24b
80000aea:	c76c                	.insn	2, 0xc76c
80000aec:	e819                	.insn	2, 0xe819
80000aee:	d192                	.insn	2, 0xd192
80000af0:	0624                	.insn	2, 0x0624
80000af2:	d699                	.insn	2, 0xd699
80000af4:	3585                	.insn	2, 0x3585
80000af6:	f40e                	.insn	2, 0xf40e
80000af8:	a070                	.insn	2, 0xa070
80000afa:	106a                	.insn	2, 0x106a
80000afc:	c116                	.insn	2, 0xc116
80000afe:	19a4                	.insn	2, 0x19a4
80000b00:	6c08                	.insn	2, 0x6c08
80000b02:	774c1e37          	lui	t3,0x774c1
80000b06:	2748                	.insn	2, 0x2748
80000b08:	bcb5                	.insn	2, 0xbcb5
80000b0a:	34b0                	.insn	2, 0x34b0
80000b0c:	391c0cb3          	.insn	4, 0x391c0cb3
80000b10:	aa4a                	.insn	2, 0xaa4a
80000b12:	4ed8                	.insn	2, 0x4ed8
80000b14:	5b9cca4f          	.insn	4, 0x5b9cca4f
80000b18:	682e6ff3          	.insn	4, 0x682e6ff3
80000b1c:	82ee                	.insn	2, 0x82ee
80000b1e:	636f748f          	.insn	4, 0x636f748f
80000b22:	78a5                	.insn	2, 0x78a5
80000b24:	7814                	.insn	2, 0x7814
80000b26:	84c8                	.insn	2, 0x84c8
80000b28:	0208                	.insn	2, 0x0208
80000b2a:	fffa8cc7          	.insn	4, 0xfffa8cc7
80000b2e:	90be                	.insn	2, 0x90be
80000b30:	a4506ceb          	.insn	4, 0xa4506ceb
80000b34:	bef9a3f7          	.insn	4, 0xbef9a3f7
80000b38:	78f2                	.insn	2, 0x78f2
80000b3a:	c671                	.insn	2, 0xc671
80000b3c:	0864                	.insn	2, 0x0864
80000b3e:	8000                	.insn	2, 0x8000
80000b40:	0798                	.insn	2, 0x0798
80000b42:	8000                	.insn	2, 0x8000
80000b44:	07e0                	.insn	2, 0x07e0
80000b46:	8000                	.insn	2, 0x8000
80000b48:	07e4                	.insn	2, 0x07e4
80000b4a:	8000                	.insn	2, 0x8000
80000b4c:	082c                	.insn	2, 0x082c
80000b4e:	8000                	.insn	2, 0x8000
80000b50:	0868                	.insn	2, 0x0868
80000b52:	8000                	.insn	2, 0x8000
80000b54:	08b0                	.insn	2, 0x08b0
80000b56:	8000                	.insn	2, 0x8000
80000b58:	08dc                	.insn	2, 0x08dc
80000b5a:	8000                	.insn	2, 0x8000
80000b5c:	0924                	.insn	2, 0x0924
80000b5e:	8000                	.insn	2, 0x8000
80000b60:	0950                	.insn	2, 0x0950
80000b62:	8000                	.insn	2, 0x8000
80000b64:	0998                	.insn	2, 0x0998
80000b66:	8000                	.insn	2, 0x8000
80000b68:	09f4                	.insn	2, 0x09f4
80000b6a:	8000                	.insn	2, 0x8000

Disassembly of section .comment:

00000000 <.comment>:
   0:	3a434347          	.insn	4, 0x3a434347
   4:	2820                	.insn	2, 0x2820
   6:	33623167          	.insn	4, 0x33623167
   a:	3630                	.insn	2, 0x3630
   c:	3330                	.insn	2, 0x3330
   e:	6139                	.insn	2, 0x6139
  10:	2029                	.insn	2, 0x2029
  12:	3531                	.insn	2, 0x3531
  14:	312e                	.insn	2, 0x312e
  16:	302e                	.insn	2, 0x302e
	...

Disassembly of section .riscv.attributes:

00000000 <.riscv.attributes>:
   0:	1b41                	.insn	2, 0x1b41
   2:	0000                	.insn	2, 0x0000
   4:	7200                	.insn	2, 0x7200
   6:	7369                	.insn	2, 0x7369
   8:	01007663          	bgeu	zero,a6,14 <_start-0x7fffffec>
   c:	0011                	.insn	2, 0x0011
   e:	0000                	.insn	2, 0x0000
  10:	1004                	.insn	2, 0x1004
  12:	7205                	.insn	2, 0x7205
  14:	3376                	.insn	2, 0x3376
  16:	6932                	.insn	2, 0x6932
  18:	7032                	.insn	2, 0x7032
  1a:	0031                	.insn	2, 0x0031
