
bin/towers.elf:     file format elf32-littleriscv


Disassembly of section .text:

80000000 <list_getSize>:
80000000:	00052503          	lw	a0,0(a0)
80000004:	00008067          	ret

80000008 <list_init>:
80000008:	00052023          	sw	zero,0(a0)
8000000c:	00052223          	sw	zero,4(a0)
80000010:	00008067          	ret

80000014 <list_push>:
80000014:	80001737          	lui	a4,0x80001
80000018:	8c070713          	addi	a4,a4,-1856 # 800008c0 <g_nodeFreeList>
8000001c:	00472783          	lw	a5,4(a4)
80000020:	00052683          	lw	a3,0(a0)
80000024:	0047a603          	lw	a2,4(a5)
80000028:	00168693          	addi	a3,a3,1
8000002c:	00c72223          	sw	a2,4(a4)
80000030:	00452703          	lw	a4,4(a0)
80000034:	00e7a223          	sw	a4,4(a5)
80000038:	00f52223          	sw	a5,4(a0)
8000003c:	00b7a023          	sw	a1,0(a5)
80000040:	00d52023          	sw	a3,0(a0)
80000044:	00008067          	ret

80000048 <list_pop>:
80000048:	00452683          	lw	a3,4(a0)
8000004c:	00050793          	mv	a5,a0
80000050:	80001737          	lui	a4,0x80001
80000054:	0046a583          	lw	a1,4(a3)
80000058:	0006a503          	lw	a0,0(a3)
8000005c:	8c070713          	addi	a4,a4,-1856 # 800008c0 <g_nodeFreeList>
80000060:	00b7a223          	sw	a1,4(a5)
80000064:	00472583          	lw	a1,4(a4)
80000068:	0007a603          	lw	a2,0(a5)
8000006c:	00b6a223          	sw	a1,4(a3)
80000070:	fff60613          	addi	a2,a2,-1
80000074:	00d72223          	sw	a3,4(a4)
80000078:	00c7a023          	sw	a2,0(a5)
8000007c:	00008067          	ret

80000080 <list_clear>:
80000080:	00052703          	lw	a4,0(a0)
80000084:	02e05863          	blez	a4,800000b4 <list_clear+0x34>
80000088:	800016b7          	lui	a3,0x80001
8000008c:	8c068693          	addi	a3,a3,-1856 # 800008c0 <g_nodeFreeList>
80000090:	00452783          	lw	a5,4(a0)
80000094:	fff70713          	addi	a4,a4,-1
80000098:	0047a603          	lw	a2,4(a5)
8000009c:	00c52223          	sw	a2,4(a0)
800000a0:	0046a603          	lw	a2,4(a3)
800000a4:	00c7a223          	sw	a2,4(a5)
800000a8:	00f6a223          	sw	a5,4(a3)
800000ac:	fe0712e3          	bnez	a4,80000090 <list_clear+0x10>
800000b0:	00052023          	sw	zero,0(a0)
800000b4:	00008067          	ret

800000b8 <towers_init>:
800000b8:	00052223          	sw	zero,4(a0)
800000bc:	00052423          	sw	zero,8(a0)
800000c0:	00052623          	sw	zero,12(a0)
800000c4:	00052823          	sw	zero,16(a0)
800000c8:	00052a23          	sw	zero,20(a0)
800000cc:	00052c23          	sw	zero,24(a0)
800000d0:	00052e23          	sw	zero,28(a0)
800000d4:	00b52023          	sw	a1,0(a0)
800000d8:	04b05863          	blez	a1,80000128 <towers_init+0x70>
800000dc:	80001837          	lui	a6,0x80001
800000e0:	8c080813          	addi	a6,a6,-1856 # 800008c0 <g_nodeFreeList>
800000e4:	00482783          	lw	a5,4(a6)
800000e8:	00058713          	mv	a4,a1
800000ec:	00000693          	li	a3,0
800000f0:	00c0006f          	j	800000fc <towers_init+0x44>
800000f4:	00078693          	mv	a3,a5
800000f8:	00060793          	mv	a5,a2
800000fc:	0047a603          	lw	a2,4(a5)
80000100:	00e7a023          	sw	a4,0(a5)
80000104:	00d7a223          	sw	a3,4(a5)
80000108:	fff70713          	addi	a4,a4,-1
8000010c:	fe0714e3          	bnez	a4,800000f4 <towers_init+0x3c>
80000110:	00c82223          	sw	a2,4(a6)
80000114:	00d7a223          	sw	a3,4(a5)
80000118:	00f52623          	sw	a5,12(a0)
8000011c:	00100713          	li	a4,1
80000120:	00e7a023          	sw	a4,0(a5)
80000124:	00b52423          	sw	a1,8(a0)
80000128:	00008067          	ret

8000012c <towers_clear>:
8000012c:	00852703          	lw	a4,8(a0)
80000130:	04e05063          	blez	a4,80000170 <towers_clear+0x44>
80000134:	800016b7          	lui	a3,0x80001
80000138:	8c068693          	addi	a3,a3,-1856 # 800008c0 <g_nodeFreeList>
8000013c:	0046a603          	lw	a2,4(a3)
80000140:	00c52783          	lw	a5,12(a0)
80000144:	00c0006f          	j	80000150 <towers_clear+0x24>
80000148:	00078613          	mv	a2,a5
8000014c:	00058793          	mv	a5,a1
80000150:	0047a583          	lw	a1,4(a5)
80000154:	fff70713          	addi	a4,a4,-1
80000158:	00c7a223          	sw	a2,4(a5)
8000015c:	fe0716e3          	bnez	a4,80000148 <towers_clear+0x1c>
80000160:	00b52623          	sw	a1,12(a0)
80000164:	00c7a223          	sw	a2,4(a5)
80000168:	00f6a223          	sw	a5,4(a3)
8000016c:	00052423          	sw	zero,8(a0)
80000170:	01052703          	lw	a4,16(a0)
80000174:	02e05a63          	blez	a4,800001a8 <towers_clear+0x7c>
80000178:	800016b7          	lui	a3,0x80001
8000017c:	8c068693          	addi	a3,a3,-1856 # 800008c0 <g_nodeFreeList>
80000180:	0046a603          	lw	a2,4(a3)
80000184:	01452783          	lw	a5,20(a0)
80000188:	0080006f          	j	80000190 <towers_clear+0x64>
8000018c:	00058793          	mv	a5,a1
80000190:	0047a583          	lw	a1,4(a5)
80000194:	fff70713          	addi	a4,a4,-1
80000198:	00c7a223          	sw	a2,4(a5)
8000019c:	00078613          	mv	a2,a5
800001a0:	fe0716e3          	bnez	a4,8000018c <towers_clear+0x60>
800001a4:	00f6a223          	sw	a5,4(a3)
800001a8:	01852703          	lw	a4,24(a0)
800001ac:	02e05a63          	blez	a4,800001e0 <towers_clear+0xb4>
800001b0:	800016b7          	lui	a3,0x80001
800001b4:	8c068693          	addi	a3,a3,-1856 # 800008c0 <g_nodeFreeList>
800001b8:	0046a603          	lw	a2,4(a3)
800001bc:	01c52783          	lw	a5,28(a0)
800001c0:	0080006f          	j	800001c8 <towers_clear+0x9c>
800001c4:	00058793          	mv	a5,a1
800001c8:	0047a583          	lw	a1,4(a5)
800001cc:	fff70713          	addi	a4,a4,-1
800001d0:	00c7a223          	sw	a2,4(a5)
800001d4:	00078613          	mv	a2,a5
800001d8:	fe0716e3          	bnez	a4,800001c4 <towers_clear+0x98>
800001dc:	00f6a223          	sw	a5,4(a3)
800001e0:	00052803          	lw	a6,0(a0)
800001e4:	00052223          	sw	zero,4(a0)
800001e8:	00052423          	sw	zero,8(a0)
800001ec:	00052623          	sw	zero,12(a0)
800001f0:	00052823          	sw	zero,16(a0)
800001f4:	00052a23          	sw	zero,20(a0)
800001f8:	00052c23          	sw	zero,24(a0)
800001fc:	00052e23          	sw	zero,28(a0)
80000200:	05005863          	blez	a6,80000250 <towers_clear+0x124>
80000204:	800016b7          	lui	a3,0x80001
80000208:	8c068693          	addi	a3,a3,-1856 # 800008c0 <g_nodeFreeList>
8000020c:	0046a783          	lw	a5,4(a3)
80000210:	00080713          	mv	a4,a6
80000214:	00000613          	li	a2,0
80000218:	00c0006f          	j	80000224 <towers_clear+0xf8>
8000021c:	00078613          	mv	a2,a5
80000220:	00058793          	mv	a5,a1
80000224:	0047a583          	lw	a1,4(a5)
80000228:	00e7a023          	sw	a4,0(a5)
8000022c:	00c7a223          	sw	a2,4(a5)
80000230:	fff70713          	addi	a4,a4,-1
80000234:	fe0714e3          	bnez	a4,8000021c <towers_clear+0xf0>
80000238:	00b6a223          	sw	a1,4(a3)
8000023c:	00c7a223          	sw	a2,4(a5)
80000240:	00f52623          	sw	a5,12(a0)
80000244:	00100713          	li	a4,1
80000248:	00e7a023          	sw	a4,0(a5)
8000024c:	01052423          	sw	a6,8(a0)
80000250:	00008067          	ret

80000254 <towers_solve_h>:
80000254:	fa010113          	addi	sp,sp,-96
80000258:	04912a23          	sw	s1,84(sp)
8000025c:	05212823          	sw	s2,80(sp)
80000260:	04112e23          	sw	ra,92(sp)
80000264:	05312623          	sw	s3,76(sp)
80000268:	00b12e23          	sw	a1,28(sp)
8000026c:	00100913          	li	s2,1
80000270:	00c12a23          	sw	a2,20(sp)
80000274:	00d12623          	sw	a3,12(sp)
80000278:	00e12c23          	sw	a4,24(sp)
8000027c:	00050493          	mv	s1,a0
80000280:	45258e63          	beq	a1,s2,800006dc <towers_solve_h+0x488>
80000284:	800019b7          	lui	s3,0x80001
80000288:	04812c23          	sw	s0,88(sp)
8000028c:	05412423          	sw	s4,72(sp)
80000290:	05512223          	sw	s5,68(sp)
80000294:	05612023          	sw	s6,64(sp)
80000298:	03712e23          	sw	s7,60(sp)
8000029c:	03812c23          	sw	s8,56(sp)
800002a0:	03912a23          	sw	s9,52(sp)
800002a4:	03a12823          	sw	s10,48(sp)
800002a8:	03b12623          	sw	s11,44(sp)
800002ac:	8c098993          	addi	s3,s3,-1856 # 800008c0 <g_nodeFreeList>
800002b0:	01c12783          	lw	a5,28(sp)
800002b4:	fff78793          	addi	a5,a5,-1
800002b8:	00f12e23          	sw	a5,28(sp)
800002bc:	2b278c63          	beq	a5,s2,80000574 <towers_solve_h+0x320>
800002c0:	01412783          	lw	a5,20(sp)
800002c4:	01812b03          	lw	s6,24(sp)
800002c8:	00f12423          	sw	a5,8(sp)
800002cc:	01c12783          	lw	a5,28(sp)
800002d0:	00f12823          	sw	a5,16(sp)
800002d4:	01012783          	lw	a5,16(sp)
800002d8:	fff78793          	addi	a5,a5,-1
800002dc:	00f12823          	sw	a5,16(sp)
800002e0:	1d278c63          	beq	a5,s2,800004b8 <towers_solve_h+0x264>
800002e4:	01012783          	lw	a5,16(sp)
800002e8:	00c12d83          	lw	s11,12(sp)
800002ec:	00812a83          	lw	s5,8(sp)
800002f0:	00f12223          	sw	a5,4(sp)
800002f4:	00412783          	lw	a5,4(sp)
800002f8:	fff78793          	addi	a5,a5,-1
800002fc:	00f12223          	sw	a5,4(sp)
80000300:	11278863          	beq	a5,s2,80000410 <towers_solve_h+0x1bc>
80000304:	00412a03          	lw	s4,4(sp)
80000308:	000b0413          	mv	s0,s6
8000030c:	000a8d13          	mv	s10,s5
80000310:	fffa0a13          	addi	s4,s4,-1
80000314:	052a0c63          	beq	s4,s2,8000036c <towers_solve_h+0x118>
80000318:	000d8b93          	mv	s7,s11
8000031c:	000d0c93          	mv	s9,s10
80000320:	000a0c13          	mv	s8,s4
80000324:	fffc0c13          	addi	s8,s8,-1
80000328:	000c0593          	mv	a1,s8
8000032c:	000b8713          	mv	a4,s7
80000330:	00040693          	mv	a3,s0
80000334:	000c8613          	mv	a2,s9
80000338:	00048513          	mv	a0,s1
8000033c:	f19ff0ef          	jal	80000254 <towers_solve_h>
80000340:	00040713          	mv	a4,s0
80000344:	000b8693          	mv	a3,s7
80000348:	000c8613          	mv	a2,s9
8000034c:	00048513          	mv	a0,s1
80000350:	00100593          	li	a1,1
80000354:	f01ff0ef          	jal	80000254 <towers_solve_h>
80000358:	000c8713          	mv	a4,s9
8000035c:	012c0a63          	beq	s8,s2,80000370 <towers_solve_h+0x11c>
80000360:	000b8c93          	mv	s9,s7
80000364:	00070b93          	mv	s7,a4
80000368:	fbdff06f          	j	80000324 <towers_solve_h+0xd0>
8000036c:	000d0b93          	mv	s7,s10
80000370:	004ba703          	lw	a4,4(s7)
80000374:	000ba603          	lw	a2,0(s7)
80000378:	0044a683          	lw	a3,4(s1)
8000037c:	00472503          	lw	a0,4(a4)
80000380:	00072583          	lw	a1,0(a4)
80000384:	fff60613          	addi	a2,a2,-1
80000388:	00aba223          	sw	a0,4(s7)
8000038c:	0049a503          	lw	a0,4(s3)
80000390:	00cba023          	sw	a2,0(s7)
80000394:	00042603          	lw	a2,0(s0)
80000398:	00a9a223          	sw	a0,4(s3)
8000039c:	00442783          	lw	a5,4(s0)
800003a0:	00160613          	addi	a2,a2,1
800003a4:	00268693          	addi	a3,a3,2
800003a8:	00f72223          	sw	a5,4(a4)
800003ac:	00e42223          	sw	a4,4(s0)
800003b0:	004d2783          	lw	a5,4(s10)
800003b4:	00b72023          	sw	a1,0(a4)
800003b8:	00c42023          	sw	a2,0(s0)
800003bc:	0047a583          	lw	a1,4(a5)
800003c0:	000d2703          	lw	a4,0(s10)
800003c4:	0007a603          	lw	a2,0(a5)
800003c8:	00bd2223          	sw	a1,4(s10)
800003cc:	0049a583          	lw	a1,4(s3)
800003d0:	fff70713          	addi	a4,a4,-1
800003d4:	00ed2023          	sw	a4,0(s10)
800003d8:	000da703          	lw	a4,0(s11)
800003dc:	00b9a223          	sw	a1,4(s3)
800003e0:	004da583          	lw	a1,4(s11)
800003e4:	00170713          	addi	a4,a4,1
800003e8:	00b7a223          	sw	a1,4(a5)
800003ec:	00fda223          	sw	a5,4(s11)
800003f0:	00c7a023          	sw	a2,0(a5)
800003f4:	00eda023          	sw	a4,0(s11)
800003f8:	00d4a223          	sw	a3,4(s1)
800003fc:	012a0e63          	beq	s4,s2,80000418 <towers_solve_h+0x1c4>
80000400:	000d0793          	mv	a5,s10
80000404:	00040d13          	mv	s10,s0
80000408:	00078413          	mv	s0,a5
8000040c:	f05ff06f          	j	80000310 <towers_solve_h+0xbc>
80000410:	0044a683          	lw	a3,4(s1)
80000414:	000a8413          	mv	s0,s5
80000418:	00442783          	lw	a5,4(s0)
8000041c:	00042703          	lw	a4,0(s0)
80000420:	00268693          	addi	a3,a3,2
80000424:	0047a583          	lw	a1,4(a5)
80000428:	0007a603          	lw	a2,0(a5)
8000042c:	fff70713          	addi	a4,a4,-1
80000430:	00b42223          	sw	a1,4(s0)
80000434:	0049a583          	lw	a1,4(s3)
80000438:	00e42023          	sw	a4,0(s0)
8000043c:	000da703          	lw	a4,0(s11)
80000440:	00b9a223          	sw	a1,4(s3)
80000444:	004da583          	lw	a1,4(s11)
80000448:	00170713          	addi	a4,a4,1
8000044c:	00b7a223          	sw	a1,4(a5)
80000450:	00fda223          	sw	a5,4(s11)
80000454:	00c7a023          	sw	a2,0(a5)
80000458:	004aa783          	lw	a5,4(s5)
8000045c:	00eda023          	sw	a4,0(s11)
80000460:	000aa703          	lw	a4,0(s5)
80000464:	0047a583          	lw	a1,4(a5)
80000468:	0007a603          	lw	a2,0(a5)
8000046c:	fff70713          	addi	a4,a4,-1
80000470:	00baa223          	sw	a1,4(s5)
80000474:	0049a583          	lw	a1,4(s3)
80000478:	00eaa023          	sw	a4,0(s5)
8000047c:	000b2703          	lw	a4,0(s6)
80000480:	00b9a223          	sw	a1,4(s3)
80000484:	004b2583          	lw	a1,4(s6)
80000488:	00170713          	addi	a4,a4,1
8000048c:	00b7a223          	sw	a1,4(a5)
80000490:	00fb2223          	sw	a5,4(s6)
80000494:	00c7a023          	sw	a2,0(a5)
80000498:	00412783          	lw	a5,4(sp)
8000049c:	00eb2023          	sw	a4,0(s6)
800004a0:	00d4a223          	sw	a3,4(s1)
800004a4:	01278e63          	beq	a5,s2,800004c0 <towers_solve_h+0x26c>
800004a8:	000a8793          	mv	a5,s5
800004ac:	000d8a93          	mv	s5,s11
800004b0:	00078d93          	mv	s11,a5
800004b4:	e41ff06f          	j	800002f4 <towers_solve_h+0xa0>
800004b8:	0044a683          	lw	a3,4(s1)
800004bc:	00812d83          	lw	s11,8(sp)
800004c0:	004da783          	lw	a5,4(s11)
800004c4:	000da703          	lw	a4,0(s11)
800004c8:	00812503          	lw	a0,8(sp)
800004cc:	0047a583          	lw	a1,4(a5)
800004d0:	0007a603          	lw	a2,0(a5)
800004d4:	fff70713          	addi	a4,a4,-1
800004d8:	00bda223          	sw	a1,4(s11)
800004dc:	0049a583          	lw	a1,4(s3)
800004e0:	00eda023          	sw	a4,0(s11)
800004e4:	000b2703          	lw	a4,0(s6)
800004e8:	00b9a223          	sw	a1,4(s3)
800004ec:	004b2583          	lw	a1,4(s6)
800004f0:	00170713          	addi	a4,a4,1
800004f4:	00268693          	addi	a3,a3,2
800004f8:	00b7a223          	sw	a1,4(a5)
800004fc:	00fb2223          	sw	a5,4(s6)
80000500:	00c7a023          	sw	a2,0(a5)
80000504:	00812783          	lw	a5,8(sp)
80000508:	0047a783          	lw	a5,4(a5)
8000050c:	00eb2023          	sw	a4,0(s6)
80000510:	00812703          	lw	a4,8(sp)
80000514:	0047a583          	lw	a1,4(a5)
80000518:	0007a603          	lw	a2,0(a5)
8000051c:	00072703          	lw	a4,0(a4)
80000520:	00b52223          	sw	a1,4(a0)
80000524:	0049a583          	lw	a1,4(s3)
80000528:	fff70713          	addi	a4,a4,-1
8000052c:	00e52023          	sw	a4,0(a0)
80000530:	00c12703          	lw	a4,12(sp)
80000534:	00072703          	lw	a4,0(a4)
80000538:	00b9a223          	sw	a1,4(s3)
8000053c:	00c12583          	lw	a1,12(sp)
80000540:	00170713          	addi	a4,a4,1
80000544:	0045a583          	lw	a1,4(a1)
80000548:	00b7a223          	sw	a1,4(a5)
8000054c:	00c12583          	lw	a1,12(sp)
80000550:	00f5a223          	sw	a5,4(a1)
80000554:	00c7a023          	sw	a2,0(a5)
80000558:	01012783          	lw	a5,16(sp)
8000055c:	00e5a023          	sw	a4,0(a1)
80000560:	00d4a223          	sw	a3,4(s1)
80000564:	01278c63          	beq	a5,s2,8000057c <towers_solve_h+0x328>
80000568:	01612423          	sw	s6,8(sp)
8000056c:	00050b13          	mv	s6,a0
80000570:	d65ff06f          	j	800002d4 <towers_solve_h+0x80>
80000574:	0044a683          	lw	a3,4(s1)
80000578:	01412b03          	lw	s6,20(sp)
8000057c:	004b2783          	lw	a5,4(s6)
80000580:	000b2703          	lw	a4,0(s6)
80000584:	01412503          	lw	a0,20(sp)
80000588:	0047a583          	lw	a1,4(a5)
8000058c:	0007a603          	lw	a2,0(a5)
80000590:	fff70713          	addi	a4,a4,-1
80000594:	00bb2223          	sw	a1,4(s6)
80000598:	0049a583          	lw	a1,4(s3)
8000059c:	00eb2023          	sw	a4,0(s6)
800005a0:	00c12703          	lw	a4,12(sp)
800005a4:	00268693          	addi	a3,a3,2
800005a8:	00072703          	lw	a4,0(a4)
800005ac:	00b9a223          	sw	a1,4(s3)
800005b0:	00c12583          	lw	a1,12(sp)
800005b4:	00170713          	addi	a4,a4,1
800005b8:	0045a583          	lw	a1,4(a1)
800005bc:	00b7a223          	sw	a1,4(a5)
800005c0:	00c12583          	lw	a1,12(sp)
800005c4:	00f5a223          	sw	a5,4(a1)
800005c8:	00c7a023          	sw	a2,0(a5)
800005cc:	01412783          	lw	a5,20(sp)
800005d0:	0047a783          	lw	a5,4(a5)
800005d4:	00e5a023          	sw	a4,0(a1)
800005d8:	01412703          	lw	a4,20(sp)
800005dc:	0047a583          	lw	a1,4(a5)
800005e0:	0007a603          	lw	a2,0(a5)
800005e4:	00072703          	lw	a4,0(a4)
800005e8:	00b52223          	sw	a1,4(a0)
800005ec:	0049a583          	lw	a1,4(s3)
800005f0:	fff70713          	addi	a4,a4,-1
800005f4:	00e52023          	sw	a4,0(a0)
800005f8:	01812703          	lw	a4,24(sp)
800005fc:	00072703          	lw	a4,0(a4)
80000600:	00b9a223          	sw	a1,4(s3)
80000604:	01812583          	lw	a1,24(sp)
80000608:	00170713          	addi	a4,a4,1
8000060c:	0045a583          	lw	a1,4(a1)
80000610:	00b7a223          	sw	a1,4(a5)
80000614:	01812583          	lw	a1,24(sp)
80000618:	00f5a223          	sw	a5,4(a1)
8000061c:	00c7a023          	sw	a2,0(a5)
80000620:	01c12783          	lw	a5,28(sp)
80000624:	00e5a023          	sw	a4,0(a1)
80000628:	00d4a223          	sw	a3,4(s1)
8000062c:	01278a63          	beq	a5,s2,80000640 <towers_solve_h+0x3ec>
80000630:	00c12703          	lw	a4,12(sp)
80000634:	00a12623          	sw	a0,12(sp)
80000638:	00e12a23          	sw	a4,20(sp)
8000063c:	c75ff06f          	j	800002b0 <towers_solve_h+0x5c>
80000640:	05812403          	lw	s0,88(sp)
80000644:	04812a03          	lw	s4,72(sp)
80000648:	04412a83          	lw	s5,68(sp)
8000064c:	04012b03          	lw	s6,64(sp)
80000650:	03c12b83          	lw	s7,60(sp)
80000654:	03812c03          	lw	s8,56(sp)
80000658:	03412c83          	lw	s9,52(sp)
8000065c:	03012d03          	lw	s10,48(sp)
80000660:	02c12d83          	lw	s11,44(sp)
80000664:	00c12783          	lw	a5,12(sp)
80000668:	00c12703          	lw	a4,12(sp)
8000066c:	00c12503          	lw	a0,12(sp)
80000670:	0047a783          	lw	a5,4(a5)
80000674:	00072703          	lw	a4,0(a4)
80000678:	05c12083          	lw	ra,92(sp)
8000067c:	0047a583          	lw	a1,4(a5)
80000680:	0007a603          	lw	a2,0(a5)
80000684:	fff70713          	addi	a4,a4,-1
80000688:	00b52223          	sw	a1,4(a0)
8000068c:	0049a583          	lw	a1,4(s3)
80000690:	00e52023          	sw	a4,0(a0)
80000694:	01812703          	lw	a4,24(sp)
80000698:	00168693          	addi	a3,a3,1
8000069c:	05012903          	lw	s2,80(sp)
800006a0:	00072703          	lw	a4,0(a4)
800006a4:	00b9a223          	sw	a1,4(s3)
800006a8:	01812583          	lw	a1,24(sp)
800006ac:	00170713          	addi	a4,a4,1
800006b0:	04c12983          	lw	s3,76(sp)
800006b4:	0045a583          	lw	a1,4(a1)
800006b8:	00b7a223          	sw	a1,4(a5)
800006bc:	01812583          	lw	a1,24(sp)
800006c0:	00f5a223          	sw	a5,4(a1)
800006c4:	00c7a023          	sw	a2,0(a5)
800006c8:	00e5a023          	sw	a4,0(a1)
800006cc:	00d4a223          	sw	a3,4(s1)
800006d0:	05412483          	lw	s1,84(sp)
800006d4:	06010113          	addi	sp,sp,96
800006d8:	00008067          	ret
800006dc:	01412783          	lw	a5,20(sp)
800006e0:	800019b7          	lui	s3,0x80001
800006e4:	00452683          	lw	a3,4(a0)
800006e8:	00f12623          	sw	a5,12(sp)
800006ec:	8c098993          	addi	s3,s3,-1856 # 800008c0 <g_nodeFreeList>
800006f0:	f75ff06f          	j	80000664 <towers_solve_h+0x410>

800006f4 <towers_solve>:
800006f4:	00052583          	lw	a1,0(a0)
800006f8:	01850713          	addi	a4,a0,24
800006fc:	01050693          	addi	a3,a0,16
80000700:	00850613          	addi	a2,a0,8
80000704:	b51ff06f          	j	80000254 <towers_solve_h>

80000708 <towers_verify>:
80000708:	00852783          	lw	a5,8(a0)
8000070c:	00050613          	mv	a2,a0
80000710:	04079663          	bnez	a5,8000075c <towers_verify+0x54>
80000714:	01052503          	lw	a0,16(a0)
80000718:	06051663          	bnez	a0,80000784 <towers_verify+0x7c>
8000071c:	00062583          	lw	a1,0(a2)
80000720:	01862783          	lw	a5,24(a2)
80000724:	02b79863          	bne	a5,a1,80000754 <towers_verify+0x4c>
80000728:	01c62783          	lw	a5,28(a2)
8000072c:	02078c63          	beqz	a5,80000764 <towers_verify+0x5c>
80000730:	00000713          	li	a4,0
80000734:	00c0006f          	j	80000740 <towers_verify+0x38>
80000738:	0047a783          	lw	a5,4(a5)
8000073c:	02078463          	beqz	a5,80000764 <towers_verify+0x5c>
80000740:	0007a683          	lw	a3,0(a5)
80000744:	00170713          	addi	a4,a4,1
80000748:	fed708e3          	beq	a4,a3,80000738 <towers_verify+0x30>
8000074c:	00500513          	li	a0,5
80000750:	00008067          	ret
80000754:	00400513          	li	a0,4
80000758:	00008067          	ret
8000075c:	00200513          	li	a0,2
80000760:	00008067          	ret
80000764:	00100793          	li	a5,1
80000768:	00462703          	lw	a4,4(a2)
8000076c:	00b797b3          	sll	a5,a5,a1
80000770:	fff78793          	addi	a5,a5,-1
80000774:	00f71463          	bne	a4,a5,8000077c <towers_verify+0x74>
80000778:	00008067          	ret
8000077c:	00600513          	li	a0,6
80000780:	00008067          	ret
80000784:	00300513          	li	a0,3
80000788:	00008067          	ret

8000078c <main>:
8000078c:	fd010113          	addi	sp,sp,-48
80000790:	80001737          	lui	a4,0x80001
80000794:	800017b7          	lui	a5,0x80001
80000798:	02112623          	sw	ra,44(sp)
8000079c:	88878793          	addi	a5,a5,-1912 # 80000888 <g_nodePool>
800007a0:	8c070713          	addi	a4,a4,-1856 # 800008c0 <g_nodeFreeList>
800007a4:	00700613          	li	a2,7
800007a8:	06300693          	li	a3,99
800007ac:	00c72023          	sw	a2,0(a4)
800007b0:	00f72223          	sw	a5,4(a4)
800007b4:	02d7a823          	sw	a3,48(a5)
800007b8:	0207aa23          	sw	zero,52(a5)
800007bc:	00000713          	li	a4,0
800007c0:	00878793          	addi	a5,a5,8
800007c4:	00600613          	li	a2,6
800007c8:	fee7ac23          	sw	a4,-8(a5)
800007cc:	fef7ae23          	sw	a5,-4(a5)
800007d0:	00170713          	addi	a4,a4,1
800007d4:	00878793          	addi	a5,a5,8
800007d8:	fec718e3          	bne	a4,a2,800007c8 <main+0x3c>
800007dc:	00700593          	li	a1,7
800007e0:	00010513          	mv	a0,sp
800007e4:	8d5ff0ef          	jal	800000b8 <towers_init>
800007e8:	00010513          	mv	a0,sp
800007ec:	941ff0ef          	jal	8000012c <towers_clear>
800007f0:	00010513          	mv	a0,sp
800007f4:	f01ff0ef          	jal	800006f4 <towers_solve>
800007f8:	00010513          	mv	a0,sp
800007fc:	f0dff0ef          	jal	80000708 <towers_verify>
80000800:	02c12083          	lw	ra,44(sp)
80000804:	03010113          	addi	sp,sp,48
80000808:	00008067          	ret

8000080c <_start>:
8000080c:	f81ff0ef          	jal	8000078c <main>
80000810:	0040006f          	j	80000814 <_exit>

80000814 <_exit>:
80000814:	00000297          	auipc	t0,0x0
80000818:	02c28293          	addi	t0,t0,44 # 80000840 <tohost>
8000081c:	00100313          	li	t1,1
80000820:	0062a023          	sw	t1,0(t0)
80000824:	0000006f          	j	80000824 <_exit+0x10>

Disassembly of section .tohost:

80000840 <tohost>:
	...

Disassembly of section .fromhost:

80000880 <fromhost>:
	...

Disassembly of section .comment:

00000000 <__begin_signature-0x800008c8>:
   0:	3a434347          	.insn	4, 0x3a434347
   4:	2820                	.insn	2, 0x2820
   6:	33623167          	.insn	4, 0x33623167
   a:	3630                	.insn	2, 0x3630
   c:	3330                	.insn	2, 0x3330
   e:	6139                	.insn	2, 0x6139
  10:	2029                	.insn	2, 0x2029
  12:	3531                	.insn	2, 0x3531
  14:	312e                	.insn	2, 0x312e
  16:	302e                	.insn	2, 0x302e
	...

Disassembly of section .riscv.attributes:

00000000 <.riscv.attributes>:
   0:	1b41                	.insn	2, 0x1b41
   2:	0000                	.insn	2, 0x0000
   4:	7200                	.insn	2, 0x7200
   6:	7369                	.insn	2, 0x7369
   8:	01007663          	bgeu	zero,a6,14 <list_getSize-0x7fffffec>
   c:	0011                	.insn	2, 0x0011
   e:	0000                	.insn	2, 0x0000
  10:	1004                	.insn	2, 0x1004
  12:	7205                	.insn	2, 0x7205
  14:	3376                	.insn	2, 0x3376
  16:	6932                	.insn	2, 0x6932
  18:	7032                	.insn	2, 0x7032
  1a:	0031                	.insn	2, 0x0031
