
bin/towers.elf:     file format elf32-littleriscv


Disassembly of section .text:

80000000 <list_getSize>:
80000000:	00052503          	lw	a0,0(a0)
80000004:	00008067          	ret

80000008 <list_init>:
80000008:	00052023          	sw	zero,0(a0)
8000000c:	00052223          	sw	zero,4(a0)
80000010:	00008067          	ret

80000014 <list_push>:
80000014:	80001737          	lui	a4,0x80001
80000018:	8c470713          	addi	a4,a4,-1852 # 800008c4 <g_nodeFreeList>
8000001c:	00472783          	lw	a5,4(a4)
80000020:	00052683          	lw	a3,0(a0)
80000024:	0047a603          	lw	a2,4(a5)
80000028:	00168693          	addi	a3,a3,1
8000002c:	00c72223          	sw	a2,4(a4)
80000030:	00452703          	lw	a4,4(a0)
80000034:	00e7a223          	sw	a4,4(a5)
80000038:	00f52223          	sw	a5,4(a0)
8000003c:	00b7a023          	sw	a1,0(a5)
80000040:	00d52023          	sw	a3,0(a0)
80000044:	00008067          	ret

80000048 <list_pop>:
80000048:	00452683          	lw	a3,4(a0)
8000004c:	00050793          	mv	a5,a0
80000050:	80001737          	lui	a4,0x80001
80000054:	0046a583          	lw	a1,4(a3)
80000058:	0006a503          	lw	a0,0(a3)
8000005c:	8c470713          	addi	a4,a4,-1852 # 800008c4 <g_nodeFreeList>
80000060:	00b7a223          	sw	a1,4(a5)
80000064:	00472583          	lw	a1,4(a4)
80000068:	0007a603          	lw	a2,0(a5)
8000006c:	00b6a223          	sw	a1,4(a3)
80000070:	fff60613          	addi	a2,a2,-1
80000074:	00d72223          	sw	a3,4(a4)
80000078:	00c7a023          	sw	a2,0(a5)
8000007c:	00008067          	ret

80000080 <list_clear>:
80000080:	00052703          	lw	a4,0(a0)
80000084:	02e05863          	blez	a4,800000b4 <list_clear+0x34>
80000088:	800016b7          	lui	a3,0x80001
8000008c:	8c468693          	addi	a3,a3,-1852 # 800008c4 <g_nodeFreeList>
80000090:	00452783          	lw	a5,4(a0)
80000094:	fff70713          	addi	a4,a4,-1
80000098:	0047a603          	lw	a2,4(a5)
8000009c:	00c52223          	sw	a2,4(a0)
800000a0:	0046a603          	lw	a2,4(a3)
800000a4:	00c7a223          	sw	a2,4(a5)
800000a8:	00f6a223          	sw	a5,4(a3)
800000ac:	fe0712e3          	bnez	a4,80000090 <list_clear+0x10>
800000b0:	00052023          	sw	zero,0(a0)
800000b4:	00008067          	ret

800000b8 <towers_init>:
800000b8:	00052223          	sw	zero,4(a0)
800000bc:	00052423          	sw	zero,8(a0)
800000c0:	00052623          	sw	zero,12(a0)
800000c4:	00052823          	sw	zero,16(a0)
800000c8:	00052a23          	sw	zero,20(a0)
800000cc:	00052c23          	sw	zero,24(a0)
800000d0:	00052e23          	sw	zero,28(a0)
800000d4:	00b52023          	sw	a1,0(a0)
800000d8:	04b05863          	blez	a1,80000128 <towers_init+0x70>
800000dc:	80001337          	lui	t1,0x80001
800000e0:	8c430313          	addi	t1,t1,-1852 # 800008c4 <g_nodeFreeList>
800000e4:	00432783          	lw	a5,4(t1)
800000e8:	00058713          	mv	a4,a1
800000ec:	00000693          	li	a3,0
800000f0:	00c0006f          	j	800000fc <towers_init+0x44>
800000f4:	00078693          	mv	a3,a5
800000f8:	00060793          	mv	a5,a2
800000fc:	0047a603          	lw	a2,4(a5)
80000100:	00e7a023          	sw	a4,0(a5)
80000104:	00d7a223          	sw	a3,4(a5)
80000108:	fff70713          	addi	a4,a4,-1
8000010c:	fe0714e3          	bnez	a4,800000f4 <towers_init+0x3c>
80000110:	00c32223          	sw	a2,4(t1)
80000114:	00d7a223          	sw	a3,4(a5)
80000118:	00f52623          	sw	a5,12(a0)
8000011c:	00100713          	li	a4,1
80000120:	00e7a023          	sw	a4,0(a5)
80000124:	00b52423          	sw	a1,8(a0)
80000128:	00008067          	ret

8000012c <towers_clear>:
8000012c:	00852703          	lw	a4,8(a0)
80000130:	04e05063          	blez	a4,80000170 <towers_clear+0x44>
80000134:	800016b7          	lui	a3,0x80001
80000138:	8c468693          	addi	a3,a3,-1852 # 800008c4 <g_nodeFreeList>
8000013c:	0046a603          	lw	a2,4(a3)
80000140:	00c52783          	lw	a5,12(a0)
80000144:	00c0006f          	j	80000150 <towers_clear+0x24>
80000148:	00078613          	mv	a2,a5
8000014c:	00058793          	mv	a5,a1
80000150:	0047a583          	lw	a1,4(a5)
80000154:	fff70713          	addi	a4,a4,-1
80000158:	00c7a223          	sw	a2,4(a5)
8000015c:	fe0716e3          	bnez	a4,80000148 <towers_clear+0x1c>
80000160:	00b52623          	sw	a1,12(a0)
80000164:	00c7a223          	sw	a2,4(a5)
80000168:	00f6a223          	sw	a5,4(a3)
8000016c:	00052423          	sw	zero,8(a0)
80000170:	01052703          	lw	a4,16(a0)
80000174:	02e05a63          	blez	a4,800001a8 <towers_clear+0x7c>
80000178:	800016b7          	lui	a3,0x80001
8000017c:	8c468693          	addi	a3,a3,-1852 # 800008c4 <g_nodeFreeList>
80000180:	0046a603          	lw	a2,4(a3)
80000184:	01452783          	lw	a5,20(a0)
80000188:	0080006f          	j	80000190 <towers_clear+0x64>
8000018c:	00058793          	mv	a5,a1
80000190:	0047a583          	lw	a1,4(a5)
80000194:	fff70713          	addi	a4,a4,-1
80000198:	00c7a223          	sw	a2,4(a5)
8000019c:	00078613          	mv	a2,a5
800001a0:	fe0716e3          	bnez	a4,8000018c <towers_clear+0x60>
800001a4:	00f6a223          	sw	a5,4(a3)
800001a8:	01852703          	lw	a4,24(a0)
800001ac:	02e05a63          	blez	a4,800001e0 <towers_clear+0xb4>
800001b0:	800016b7          	lui	a3,0x80001
800001b4:	8c468693          	addi	a3,a3,-1852 # 800008c4 <g_nodeFreeList>
800001b8:	0046a603          	lw	a2,4(a3)
800001bc:	01c52783          	lw	a5,28(a0)
800001c0:	0080006f          	j	800001c8 <towers_clear+0x9c>
800001c4:	00058793          	mv	a5,a1
800001c8:	0047a583          	lw	a1,4(a5)
800001cc:	fff70713          	addi	a4,a4,-1
800001d0:	00c7a223          	sw	a2,4(a5)
800001d4:	00078613          	mv	a2,a5
800001d8:	fe0716e3          	bnez	a4,800001c4 <towers_clear+0x98>
800001dc:	00f6a223          	sw	a5,4(a3)
800001e0:	00052303          	lw	t1,0(a0)
800001e4:	00052223          	sw	zero,4(a0)
800001e8:	00052423          	sw	zero,8(a0)
800001ec:	00052623          	sw	zero,12(a0)
800001f0:	00052823          	sw	zero,16(a0)
800001f4:	00052a23          	sw	zero,20(a0)
800001f8:	00052c23          	sw	zero,24(a0)
800001fc:	00052e23          	sw	zero,28(a0)
80000200:	04605863          	blez	t1,80000250 <towers_clear+0x124>
80000204:	800016b7          	lui	a3,0x80001
80000208:	8c468693          	addi	a3,a3,-1852 # 800008c4 <g_nodeFreeList>
8000020c:	0046a783          	lw	a5,4(a3)
80000210:	00030713          	mv	a4,t1
80000214:	00000613          	li	a2,0
80000218:	00c0006f          	j	80000224 <towers_clear+0xf8>
8000021c:	00078613          	mv	a2,a5
80000220:	00058793          	mv	a5,a1
80000224:	0047a583          	lw	a1,4(a5)
80000228:	00e7a023          	sw	a4,0(a5)
8000022c:	00c7a223          	sw	a2,4(a5)
80000230:	fff70713          	addi	a4,a4,-1
80000234:	fe0714e3          	bnez	a4,8000021c <towers_clear+0xf0>
80000238:	00b6a223          	sw	a1,4(a3)
8000023c:	00c7a223          	sw	a2,4(a5)
80000240:	00f52623          	sw	a5,12(a0)
80000244:	00100713          	li	a4,1
80000248:	00e7a023          	sw	a4,0(a5)
8000024c:	00652423          	sw	t1,8(a0)
80000250:	00008067          	ret

80000254 <towers_solve_h>:
80000254:	fb010113          	addi	sp,sp,-80
80000258:	04112623          	sw	ra,76(sp)
8000025c:	00100793          	li	a5,1
80000260:	00a12023          	sw	a0,0(sp)
80000264:	00060393          	mv	t2,a2
80000268:	00068613          	mv	a2,a3
8000026c:	00070693          	mv	a3,a4
80000270:	4cf58e63          	beq	a1,a5,8000074c <towers_solve_h+0x4f8>
80000274:	800017b7          	lui	a5,0x80001
80000278:	8c478793          	addi	a5,a5,-1852 # 800008c4 <g_nodeFreeList>
8000027c:	04912223          	sw	s1,68(sp)
80000280:	00058493          	mv	s1,a1
80000284:	04812423          	sw	s0,72(sp)
80000288:	02f12a23          	sw	a5,52(sp)
8000028c:	fff48493          	addi	s1,s1,-1
80000290:	00100793          	li	a5,1
80000294:	00038413          	mv	s0,t2
80000298:	00060713          	mv	a4,a2
8000029c:	42f48a63          	beq	s1,a5,800006d0 <towers_solve_h+0x47c>
800002a0:	02912423          	sw	s1,40(sp)
800002a4:	02812603          	lw	a2,40(sp)
800002a8:	02912c23          	sw	s1,56(sp)
800002ac:	04d12023          	sw	a3,64(sp)
800002b0:	fff60613          	addi	a2,a2,-1
800002b4:	02c12423          	sw	a2,40(sp)
800002b8:	02812583          	lw	a1,40(sp)
800002bc:	02812e23          	sw	s0,60(sp)
800002c0:	00100613          	li	a2,1
800002c4:	00068493          	mv	s1,a3
800002c8:	00040793          	mv	a5,s0
800002cc:	00070693          	mv	a3,a4
800002d0:	03412703          	lw	a4,52(sp)
800002d4:	30c58e63          	beq	a1,a2,800005f0 <towers_solve_h+0x39c>
800002d8:	02812603          	lw	a2,40(sp)
800002dc:	00078413          	mv	s0,a5
800002e0:	02f12623          	sw	a5,44(sp)
800002e4:	00c12e23          	sw	a2,28(sp)
800002e8:	01c12783          	lw	a5,28(sp)
800002ec:	00068513          	mv	a0,a3
800002f0:	02d12823          	sw	a3,48(sp)
800002f4:	fff78793          	addi	a5,a5,-1
800002f8:	00f12e23          	sw	a5,28(sp)
800002fc:	01c12683          	lw	a3,28(sp)
80000300:	00100793          	li	a5,1
80000304:	20f68a63          	beq	a3,a5,80000518 <towers_solve_h+0x2c4>
80000308:	01c12583          	lw	a1,28(sp)
8000030c:	00048793          	mv	a5,s1
80000310:	00040693          	mv	a3,s0
80000314:	02912023          	sw	s1,32(sp)
80000318:	02812223          	sw	s0,36(sp)
8000031c:	fff58593          	addi	a1,a1,-1
80000320:	00100613          	li	a2,1
80000324:	00068413          	mv	s0,a3
80000328:	08c58063          	beq	a1,a2,800003a8 <towers_solve_h+0x154>
8000032c:	00050413          	mv	s0,a0
80000330:	00068613          	mv	a2,a3
80000334:	00058493          	mv	s1,a1
80000338:	00b12623          	sw	a1,12(sp)
8000033c:	00a12823          	sw	a0,16(sp)
80000340:	00d12a23          	sw	a3,20(sp)
80000344:	00f12223          	sw	a5,4(sp)
80000348:	00e12c23          	sw	a4,24(sp)
8000034c:	00412683          	lw	a3,4(sp)
80000350:	00012503          	lw	a0,0(sp)
80000354:	fff48493          	addi	s1,s1,-1
80000358:	00048593          	mv	a1,s1
8000035c:	00040713          	mv	a4,s0
80000360:	00c12423          	sw	a2,8(sp)
80000364:	ef1ff0ef          	jal	80000254 <towers_solve_h>
80000368:	00412703          	lw	a4,4(sp)
8000036c:	00812603          	lw	a2,8(sp)
80000370:	00012503          	lw	a0,0(sp)
80000374:	00040693          	mv	a3,s0
80000378:	00100593          	li	a1,1
8000037c:	ed9ff0ef          	jal	80000254 <towers_solve_h>
80000380:	00100713          	li	a4,1
80000384:	00e48863          	beq	s1,a4,80000394 <towers_solve_h+0x140>
80000388:	00040613          	mv	a2,s0
8000038c:	00812403          	lw	s0,8(sp)
80000390:	fbdff06f          	j	8000034c <towers_solve_h+0xf8>
80000394:	00c12583          	lw	a1,12(sp)
80000398:	01012503          	lw	a0,16(sp)
8000039c:	01412683          	lw	a3,20(sp)
800003a0:	00412783          	lw	a5,4(sp)
800003a4:	01812703          	lw	a4,24(sp)
800003a8:	00442603          	lw	a2,4(s0)
800003ac:	00012303          	lw	t1,0(sp)
800003b0:	00042283          	lw	t0,0(s0)
800003b4:	00462483          	lw	s1,4(a2)
800003b8:	00432303          	lw	t1,4(t1)
800003bc:	00062383          	lw	t2,0(a2)
800003c0:	00942223          	sw	s1,4(s0)
800003c4:	00472483          	lw	s1,4(a4)
800003c8:	fff28293          	addi	t0,t0,-1
800003cc:	00542023          	sw	t0,0(s0)
800003d0:	0007a283          	lw	t0,0(a5)
800003d4:	00972223          	sw	s1,4(a4)
800003d8:	0047a403          	lw	s0,4(a5)
800003dc:	00128293          	addi	t0,t0,1
800003e0:	00230313          	addi	t1,t1,2
800003e4:	00862223          	sw	s0,4(a2)
800003e8:	00c7a223          	sw	a2,4(a5)
800003ec:	00762023          	sw	t2,0(a2)
800003f0:	0046a603          	lw	a2,4(a3)
800003f4:	0057a023          	sw	t0,0(a5)
800003f8:	0006a283          	lw	t0,0(a3)
800003fc:	00462403          	lw	s0,4(a2)
80000400:	00062383          	lw	t2,0(a2)
80000404:	fff28293          	addi	t0,t0,-1
80000408:	0086a223          	sw	s0,4(a3)
8000040c:	00472403          	lw	s0,4(a4)
80000410:	0056a023          	sw	t0,0(a3)
80000414:	00052283          	lw	t0,0(a0)
80000418:	00872223          	sw	s0,4(a4)
8000041c:	00452483          	lw	s1,4(a0)
80000420:	00128293          	addi	t0,t0,1
80000424:	00100413          	li	s0,1
80000428:	00962223          	sw	s1,4(a2)
8000042c:	00c52223          	sw	a2,4(a0)
80000430:	00762023          	sw	t2,0(a2)
80000434:	00012603          	lw	a2,0(sp)
80000438:	00552023          	sw	t0,0(a0)
8000043c:	00662223          	sw	t1,4(a2)
80000440:	00858a63          	beq	a1,s0,80000454 <towers_solve_h+0x200>
80000444:	00068613          	mv	a2,a3
80000448:	00078693          	mv	a3,a5
8000044c:	00060793          	mv	a5,a2
80000450:	ecdff06f          	j	8000031c <towers_solve_h+0xc8>
80000454:	02012483          	lw	s1,32(sp)
80000458:	02412403          	lw	s0,36(sp)
8000045c:	0047a683          	lw	a3,4(a5)
80000460:	0007a603          	lw	a2,0(a5)
80000464:	00230313          	addi	t1,t1,2
80000468:	0046a583          	lw	a1,4(a3)
8000046c:	0006a283          	lw	t0,0(a3)
80000470:	fff60613          	addi	a2,a2,-1
80000474:	00b7a223          	sw	a1,4(a5)
80000478:	00472383          	lw	t2,4(a4)
8000047c:	00c7a023          	sw	a2,0(a5)
80000480:	00052583          	lw	a1,0(a0)
80000484:	00772223          	sw	t2,4(a4)
80000488:	00452783          	lw	a5,4(a0)
8000048c:	00158593          	addi	a1,a1,1
80000490:	00100613          	li	a2,1
80000494:	00f6a223          	sw	a5,4(a3)
80000498:	00d52223          	sw	a3,4(a0)
8000049c:	00442783          	lw	a5,4(s0)
800004a0:	0056a023          	sw	t0,0(a3)
800004a4:	00b52023          	sw	a1,0(a0)
800004a8:	0047a283          	lw	t0,4(a5)
800004ac:	00042683          	lw	a3,0(s0)
800004b0:	0007a583          	lw	a1,0(a5)
800004b4:	00542223          	sw	t0,4(s0)
800004b8:	00472283          	lw	t0,4(a4)
800004bc:	fff68693          	addi	a3,a3,-1
800004c0:	00d42023          	sw	a3,0(s0)
800004c4:	0004a683          	lw	a3,0(s1)
800004c8:	00572223          	sw	t0,4(a4)
800004cc:	0044a283          	lw	t0,4(s1)
800004d0:	00c686b3          	add	a3,a3,a2
800004d4:	0057a223          	sw	t0,4(a5)
800004d8:	00f4a223          	sw	a5,4(s1)
800004dc:	00b7a023          	sw	a1,0(a5)
800004e0:	00012783          	lw	a5,0(sp)
800004e4:	00d4a023          	sw	a3,0(s1)
800004e8:	0067a223          	sw	t1,4(a5)
800004ec:	01c12783          	lw	a5,28(sp)
800004f0:	02c78c63          	beq	a5,a2,80000528 <towers_solve_h+0x2d4>
800004f4:	00040793          	mv	a5,s0
800004f8:	00050413          	mv	s0,a0
800004fc:	00078513          	mv	a0,a5
80000500:	01c12783          	lw	a5,28(sp)
80000504:	fff78793          	addi	a5,a5,-1
80000508:	00f12e23          	sw	a5,28(sp)
8000050c:	01c12683          	lw	a3,28(sp)
80000510:	00100793          	li	a5,1
80000514:	def69ae3          	bne	a3,a5,80000308 <towers_solve_h+0xb4>
80000518:	00012783          	lw	a5,0(sp)
8000051c:	0047a303          	lw	t1,4(a5)
80000520:	00040793          	mv	a5,s0
80000524:	f39ff06f          	j	8000045c <towers_solve_h+0x208>
80000528:	02c12783          	lw	a5,44(sp)
8000052c:	03012683          	lw	a3,48(sp)
80000530:	00030593          	mv	a1,t1
80000534:	00452603          	lw	a2,4(a0)
80000538:	00052303          	lw	t1,0(a0)
8000053c:	00258593          	addi	a1,a1,2
80000540:	00462383          	lw	t2,4(a2)
80000544:	00062283          	lw	t0,0(a2)
80000548:	fff30313          	addi	t1,t1,-1
8000054c:	00752223          	sw	t2,4(a0)
80000550:	00472383          	lw	t2,4(a4)
80000554:	00652023          	sw	t1,0(a0)
80000558:	0004a503          	lw	a0,0(s1)
8000055c:	00772223          	sw	t2,4(a4)
80000560:	0044a383          	lw	t2,4(s1)
80000564:	00150513          	addi	a0,a0,1
80000568:	00100313          	li	t1,1
8000056c:	00762223          	sw	t2,4(a2)
80000570:	00c4a223          	sw	a2,4(s1)
80000574:	00562023          	sw	t0,0(a2)
80000578:	0047a603          	lw	a2,4(a5)
8000057c:	00a4a023          	sw	a0,0(s1)
80000580:	0007a503          	lw	a0,0(a5)
80000584:	00462383          	lw	t2,4(a2)
80000588:	00062283          	lw	t0,0(a2)
8000058c:	fff50513          	addi	a0,a0,-1
80000590:	0077a223          	sw	t2,4(a5)
80000594:	00472383          	lw	t2,4(a4)
80000598:	00a7a023          	sw	a0,0(a5)
8000059c:	0006a503          	lw	a0,0(a3)
800005a0:	00772223          	sw	t2,4(a4)
800005a4:	0046a383          	lw	t2,4(a3)
800005a8:	00650533          	add	a0,a0,t1
800005ac:	00762223          	sw	t2,4(a2)
800005b0:	00c6a223          	sw	a2,4(a3)
800005b4:	00562023          	sw	t0,0(a2)
800005b8:	00012603          	lw	a2,0(sp)
800005bc:	00a6a023          	sw	a0,0(a3)
800005c0:	00b62223          	sw	a1,4(a2)
800005c4:	02812603          	lw	a2,40(sp)
800005c8:	02660c63          	beq	a2,t1,80000600 <towers_solve_h+0x3ac>
800005cc:	00078613          	mv	a2,a5
800005d0:	00048793          	mv	a5,s1
800005d4:	00060493          	mv	s1,a2
800005d8:	02812603          	lw	a2,40(sp)
800005dc:	fff60613          	addi	a2,a2,-1
800005e0:	02c12423          	sw	a2,40(sp)
800005e4:	02812583          	lw	a1,40(sp)
800005e8:	00100613          	li	a2,1
800005ec:	cec596e3          	bne	a1,a2,800002d8 <towers_solve_h+0x84>
800005f0:	00012603          	lw	a2,0(sp)
800005f4:	00078513          	mv	a0,a5
800005f8:	00462583          	lw	a1,4(a2)
800005fc:	f39ff06f          	j	80000534 <towers_solve_h+0x2e0>
80000600:	00048393          	mv	t2,s1
80000604:	00068713          	mv	a4,a3
80000608:	03812483          	lw	s1,56(sp)
8000060c:	03c12403          	lw	s0,60(sp)
80000610:	04012683          	lw	a3,64(sp)
80000614:	0043a783          	lw	a5,4(t2)
80000618:	0003a603          	lw	a2,0(t2)
8000061c:	03412283          	lw	t0,52(sp)
80000620:	0047a503          	lw	a0,4(a5)
80000624:	0007a303          	lw	t1,0(a5)
80000628:	fff60613          	addi	a2,a2,-1
8000062c:	00a3a223          	sw	a0,4(t2)
80000630:	03412503          	lw	a0,52(sp)
80000634:	00258593          	addi	a1,a1,2
80000638:	00452503          	lw	a0,4(a0)
8000063c:	00c3a023          	sw	a2,0(t2)
80000640:	00072603          	lw	a2,0(a4)
80000644:	00a2a223          	sw	a0,4(t0)
80000648:	00472283          	lw	t0,4(a4)
8000064c:	00160613          	addi	a2,a2,1
80000650:	03412383          	lw	t2,52(sp)
80000654:	0057a223          	sw	t0,4(a5)
80000658:	00f72223          	sw	a5,4(a4)
8000065c:	0067a023          	sw	t1,0(a5)
80000660:	00442783          	lw	a5,4(s0)
80000664:	00c72023          	sw	a2,0(a4)
80000668:	00042603          	lw	a2,0(s0)
8000066c:	0047a283          	lw	t0,4(a5)
80000670:	0007a303          	lw	t1,0(a5)
80000674:	fff60613          	addi	a2,a2,-1
80000678:	00542223          	sw	t0,4(s0)
8000067c:	03412283          	lw	t0,52(sp)
80000680:	00100513          	li	a0,1
80000684:	0042a283          	lw	t0,4(t0)
80000688:	00c42023          	sw	a2,0(s0)
8000068c:	0006a603          	lw	a2,0(a3)
80000690:	0053a223          	sw	t0,4(t2)
80000694:	0046a283          	lw	t0,4(a3)
80000698:	00a60633          	add	a2,a2,a0
8000069c:	0057a223          	sw	t0,4(a5)
800006a0:	00f6a223          	sw	a5,4(a3)
800006a4:	0067a023          	sw	t1,0(a5)
800006a8:	00c6a023          	sw	a2,0(a3)
800006ac:	00012783          	lw	a5,0(sp)
800006b0:	00b7a223          	sw	a1,4(a5)
800006b4:	02a48663          	beq	s1,a0,800006e0 <towers_solve_h+0x48c>
800006b8:	00040793          	mv	a5,s0
800006bc:	fff48493          	addi	s1,s1,-1
800006c0:	00070413          	mv	s0,a4
800006c4:	00078713          	mv	a4,a5
800006c8:	00100793          	li	a5,1
800006cc:	bcf49ae3          	bne	s1,a5,800002a0 <towers_solve_h+0x4c>
800006d0:	00012783          	lw	a5,0(sp)
800006d4:	00040393          	mv	t2,s0
800006d8:	0047a583          	lw	a1,4(a5)
800006dc:	f39ff06f          	j	80000614 <towers_solve_h+0x3c0>
800006e0:	04812403          	lw	s0,72(sp)
800006e4:	04412483          	lw	s1,68(sp)
800006e8:	00070313          	mv	t1,a4
800006ec:	00432783          	lw	a5,4(t1)
800006f0:	00032703          	lw	a4,0(t1)
800006f4:	04c12083          	lw	ra,76(sp)
800006f8:	0047a503          	lw	a0,4(a5)
800006fc:	0007a603          	lw	a2,0(a5)
80000700:	fff70713          	addi	a4,a4,-1
80000704:	00a32223          	sw	a0,4(t1)
80000708:	03412503          	lw	a0,52(sp)
8000070c:	00158593          	addi	a1,a1,1
80000710:	00452503          	lw	a0,4(a0)
80000714:	00e32023          	sw	a4,0(t1)
80000718:	03412303          	lw	t1,52(sp)
8000071c:	0006a703          	lw	a4,0(a3)
80000720:	00a32223          	sw	a0,4(t1)
80000724:	0046a503          	lw	a0,4(a3)
80000728:	00170713          	addi	a4,a4,1
8000072c:	00a7a223          	sw	a0,4(a5)
80000730:	00f6a223          	sw	a5,4(a3)
80000734:	00c7a023          	sw	a2,0(a5)
80000738:	00012783          	lw	a5,0(sp)
8000073c:	00e6a023          	sw	a4,0(a3)
80000740:	00b7a223          	sw	a1,4(a5)
80000744:	05010113          	addi	sp,sp,80
80000748:	00008067          	ret
8000074c:	00012783          	lw	a5,0(sp)
80000750:	00038313          	mv	t1,t2
80000754:	0047a583          	lw	a1,4(a5)
80000758:	800017b7          	lui	a5,0x80001
8000075c:	8c478793          	addi	a5,a5,-1852 # 800008c4 <g_nodeFreeList>
80000760:	02f12a23          	sw	a5,52(sp)
80000764:	f89ff06f          	j	800006ec <towers_solve_h+0x498>

80000768 <towers_solve>:
80000768:	00052583          	lw	a1,0(a0)
8000076c:	01850713          	addi	a4,a0,24
80000770:	01050693          	addi	a3,a0,16
80000774:	00850613          	addi	a2,a0,8
80000778:	addff06f          	j	80000254 <towers_solve_h>

8000077c <towers_verify>:
8000077c:	00852783          	lw	a5,8(a0)
80000780:	00050613          	mv	a2,a0
80000784:	04079663          	bnez	a5,800007d0 <towers_verify+0x54>
80000788:	01052503          	lw	a0,16(a0)
8000078c:	06051663          	bnez	a0,800007f8 <towers_verify+0x7c>
80000790:	00062583          	lw	a1,0(a2)
80000794:	01862783          	lw	a5,24(a2)
80000798:	02b79863          	bne	a5,a1,800007c8 <towers_verify+0x4c>
8000079c:	01c62783          	lw	a5,28(a2)
800007a0:	02078c63          	beqz	a5,800007d8 <towers_verify+0x5c>
800007a4:	00000713          	li	a4,0
800007a8:	00c0006f          	j	800007b4 <towers_verify+0x38>
800007ac:	0047a783          	lw	a5,4(a5)
800007b0:	02078463          	beqz	a5,800007d8 <towers_verify+0x5c>
800007b4:	0007a683          	lw	a3,0(a5)
800007b8:	00170713          	addi	a4,a4,1
800007bc:	fed708e3          	beq	a4,a3,800007ac <towers_verify+0x30>
800007c0:	00500513          	li	a0,5
800007c4:	00008067          	ret
800007c8:	00400513          	li	a0,4
800007cc:	00008067          	ret
800007d0:	00200513          	li	a0,2
800007d4:	00008067          	ret
800007d8:	00100793          	li	a5,1
800007dc:	00462703          	lw	a4,4(a2)
800007e0:	00b797b3          	sll	a5,a5,a1
800007e4:	fff78793          	addi	a5,a5,-1
800007e8:	00f71463          	bne	a4,a5,800007f0 <towers_verify+0x74>
800007ec:	00008067          	ret
800007f0:	00600513          	li	a0,6
800007f4:	00008067          	ret
800007f8:	00300513          	li	a0,3
800007fc:	00008067          	ret

80000800 <main>:
80000800:	fdc10113          	addi	sp,sp,-36
80000804:	80001737          	lui	a4,0x80001
80000808:	800017b7          	lui	a5,0x80001
8000080c:	02112023          	sw	ra,32(sp)
80000810:	88c78793          	addi	a5,a5,-1908 # 8000088c <g_nodePool>
80000814:	8c470713          	addi	a4,a4,-1852 # 800008c4 <g_nodeFreeList>
80000818:	00700613          	li	a2,7
8000081c:	06300693          	li	a3,99
80000820:	00c72023          	sw	a2,0(a4)
80000824:	00f72223          	sw	a5,4(a4)
80000828:	02d7a823          	sw	a3,48(a5)
8000082c:	0207aa23          	sw	zero,52(a5)
80000830:	00000713          	li	a4,0
80000834:	00878793          	addi	a5,a5,8
80000838:	00600613          	li	a2,6
8000083c:	fee7ac23          	sw	a4,-8(a5)
80000840:	fef7ae23          	sw	a5,-4(a5)
80000844:	00170713          	addi	a4,a4,1
80000848:	00878793          	addi	a5,a5,8
8000084c:	fec718e3          	bne	a4,a2,8000083c <main+0x3c>
80000850:	00700593          	li	a1,7
80000854:	00010513          	mv	a0,sp
80000858:	861ff0ef          	jal	800000b8 <towers_init>
8000085c:	00010513          	mv	a0,sp
80000860:	8cdff0ef          	jal	8000012c <towers_clear>
80000864:	00010513          	mv	a0,sp
80000868:	f01ff0ef          	jal	80000768 <towers_solve>
8000086c:	00010513          	mv	a0,sp
80000870:	f0dff0ef          	jal	8000077c <towers_verify>
80000874:	02012083          	lw	ra,32(sp)
80000878:	02410113          	addi	sp,sp,36
8000087c:	00008067          	ret

80000880 <_start>:
80000880:	f81ff0ef          	jal	80000800 <main>

80000884 <_exit>:
80000884:	00100073          	ebreak
80000888:	0000006f          	j	80000888 <_exit+0x4>

Disassembly of section .comment:

00000000 <.comment>:
   0:	3a434347          	.insn	4, 0x3a434347
   4:	2820                	.insn	2, 0x2820
   6:	33623167          	.insn	4, 0x33623167
   a:	3630                	.insn	2, 0x3630
   c:	3330                	.insn	2, 0x3330
   e:	6139                	.insn	2, 0x6139
  10:	2029                	.insn	2, 0x2029
  12:	3531                	.insn	2, 0x3531
  14:	312e                	.insn	2, 0x312e
  16:	302e                	.insn	2, 0x302e
	...

Disassembly of section .riscv.attributes:

00000000 <.riscv.attributes>:
   0:	1b41                	.insn	2, 0x1b41
   2:	0000                	.insn	2, 0x0000
   4:	7200                	.insn	2, 0x7200
   6:	7369                	.insn	2, 0x7369
   8:	01007663          	bgeu	zero,a6,14 <list_getSize-0x7fffffec>
   c:	0011                	.insn	2, 0x0011
   e:	0000                	.insn	2, 0x0000
  10:	0404                	.insn	2, 0x0404
  12:	7205                	.insn	2, 0x7205
  14:	3376                	.insn	2, 0x3376
  16:	6532                	.insn	2, 0x6532
  18:	7032                	.insn	2, 0x7032
  1a:	0030                	.insn	2, 0x0030
